	.file	"test.c"
	.text
	.type	stbi__sse2_available, @function
stbi__sse2_available:
.LFB505:
	.cfi_startproc
	endbr64
	pushq	%rbp
	.cfi_def_cfa_offset 16
	.cfi_offset 6, -16
	movq	%rsp, %rbp
	.cfi_def_cfa_register 6
	movl	$1, %eax
	popq	%rbp
	.cfi_def_cfa 7, 8
	ret
	.cfi_endproc
.LFE505:
	.size	stbi__sse2_available, .-stbi__sse2_available
	.type	stbi__start_mem, @function
stbi__start_mem:
.LFB506:
	.cfi_startproc
	endbr64
	pushq	%rbp
	.cfi_def_cfa_offset 16
	.cfi_offset 6, -16
	movq	%rsp, %rbp
	.cfi_def_cfa_register 6
	movq	%rdi, -8(%rbp)
	movq	%rsi, -16(%rbp)
	movl	%edx, -20(%rbp)
	movq	-8(%rbp), %rax
	movq	$0, 16(%rax)
	movq	-8(%rbp), %rax
	movl	$0, 48(%rax)
	movq	-8(%rbp), %rax
	movl	$0, 184(%rax)
	movq	-8(%rbp), %rax
	movq	-16(%rbp), %rdx
	movq	%rdx, 208(%rax)
	movq	-8(%rbp), %rax
	movq	208(%rax), %rdx
	movq	-8(%rbp), %rax
	movq	%rdx, 192(%rax)
	movl	-20(%rbp), %eax
	movslq	%eax, %rdx
	movq	-16(%rbp), %rax
	addq	%rax, %rdx
	movq	-8(%rbp), %rax
	movq	%rdx, 216(%rax)
	movq	-8(%rbp), %rax
	movq	216(%rax), %rdx
	movq	-8(%rbp), %rax
	movq	%rdx, 200(%rax)
	nop
	popq	%rbp
	.cfi_def_cfa 7, 8
	ret
	.cfi_endproc
.LFE506:
	.size	stbi__start_mem, .-stbi__start_mem
	.type	stbi__start_callbacks, @function
stbi__start_callbacks:
.LFB507:
	.cfi_startproc
	endbr64
	pushq	%rbp
	.cfi_def_cfa_offset 16
	.cfi_offset 6, -16
	movq	%rsp, %rbp
	.cfi_def_cfa_register 6
	subq	$32, %rsp
	movq	%rdi, -8(%rbp)
	movq	%rsi, -16(%rbp)
	movq	%rdx, -24(%rbp)
	movq	-8(%rbp), %rcx
	movq	-16(%rbp), %rsi
	movq	(%rsi), %rax
	movq	8(%rsi), %rdx
	movq	%rax, 16(%rcx)
	movq	%rdx, 24(%rcx)
	movq	16(%rsi), %rax
	movq	%rax, 32(%rcx)
	movq	-8(%rbp), %rax
	movq	-24(%rbp), %rdx
	movq	%rdx, 40(%rax)
	movq	-8(%rbp), %rax
	movl	$128, 52(%rax)
	movq	-8(%rbp), %rax
	movl	$1, 48(%rax)
	movq	-8(%rbp), %rax
	movl	$0, 184(%rax)
	movq	-8(%rbp), %rax
	leaq	56(%rax), %rdx
	movq	-8(%rbp), %rax
	movq	%rdx, 208(%rax)
	movq	-8(%rbp), %rax
	movq	208(%rax), %rdx
	movq	-8(%rbp), %rax
	movq	%rdx, 192(%rax)
	movq	-8(%rbp), %rax
	movq	%rax, %rdi
	call	stbi__refill_buffer
	movq	-8(%rbp), %rax
	movq	200(%rax), %rdx
	movq	-8(%rbp), %rax
	movq	%rdx, 216(%rax)
	nop
	leave
	.cfi_def_cfa 7, 8
	ret
	.cfi_endproc
.LFE507:
	.size	stbi__start_callbacks, .-stbi__start_callbacks
	.type	stbi__stdio_read, @function
stbi__stdio_read:
.LFB508:
	.cfi_startproc
	endbr64
	pushq	%rbp
	.cfi_def_cfa_offset 16
	.cfi_offset 6, -16
	movq	%rsp, %rbp
	.cfi_def_cfa_register 6
	subq	$32, %rsp
	movq	%rdi, -8(%rbp)
	movq	%rsi, -16(%rbp)
	movl	%edx, -20(%rbp)
	movl	-20(%rbp), %eax
	movslq	%eax, %rdx
	movq	-8(%rbp), %rcx
	movq	-16(%rbp), %rax
	movl	$1, %esi
	movq	%rax, %rdi
	call	fread@PLT
	leave
	.cfi_def_cfa 7, 8
	ret
	.cfi_endproc
.LFE508:
	.size	stbi__stdio_read, .-stbi__stdio_read
	.type	stbi__stdio_skip, @function
stbi__stdio_skip:
.LFB509:
	.cfi_startproc
	endbr64
	pushq	%rbp
	.cfi_def_cfa_offset 16
	.cfi_offset 6, -16
	movq	%rsp, %rbp
	.cfi_def_cfa_register 6
	subq	$32, %rsp
	movq	%rdi, -24(%rbp)
	movl	%esi, -28(%rbp)
	movl	-28(%rbp), %eax
	movslq	%eax, %rcx
	movq	-24(%rbp), %rax
	movl	$1, %edx
	movq	%rcx, %rsi
	movq	%rax, %rdi
	call	fseek@PLT
	movq	-24(%rbp), %rax
	movq	%rax, %rdi
	call	fgetc@PLT
	movl	%eax, -4(%rbp)
	cmpl	$-1, -4(%rbp)
	je	.L9
	movq	-24(%rbp), %rdx
	movl	-4(%rbp), %eax
	movq	%rdx, %rsi
	movl	%eax, %edi
	call	ungetc@PLT
.L9:
	nop
	leave
	.cfi_def_cfa 7, 8
	ret
	.cfi_endproc
.LFE509:
	.size	stbi__stdio_skip, .-stbi__stdio_skip
	.type	stbi__stdio_eof, @function
stbi__stdio_eof:
.LFB510:
	.cfi_startproc
	endbr64
	pushq	%rbp
	.cfi_def_cfa_offset 16
	.cfi_offset 6, -16
	movq	%rsp, %rbp
	.cfi_def_cfa_register 6
	subq	$16, %rsp
	movq	%rdi, -8(%rbp)
	movq	-8(%rbp), %rax
	movq	%rax, %rdi
	call	feof@PLT
	testl	%eax, %eax
	jne	.L11
	movq	-8(%rbp), %rax
	movq	%rax, %rdi
	call	ferror@PLT
	testl	%eax, %eax
	je	.L12
.L11:
	movl	$1, %eax
	jmp	.L14
.L12:
	movl	$0, %eax
.L14:
	leave
	.cfi_def_cfa 7, 8
	ret
	.cfi_endproc
.LFE510:
	.size	stbi__stdio_eof, .-stbi__stdio_eof
	.section	.data.rel.local,"aw"
	.align 16
	.type	stbi__stdio_callbacks, @object
	.size	stbi__stdio_callbacks, 24
stbi__stdio_callbacks:
	.quad	stbi__stdio_read
	.quad	stbi__stdio_skip
	.quad	stbi__stdio_eof
	.text
	.type	stbi__start_file, @function
stbi__start_file:
.LFB511:
	.cfi_startproc
	endbr64
	pushq	%rbp
	.cfi_def_cfa_offset 16
	.cfi_offset 6, -16
	movq	%rsp, %rbp
	.cfi_def_cfa_register 6
	subq	$16, %rsp
	movq	%rdi, -8(%rbp)
	movq	%rsi, -16(%rbp)
	movq	-16(%rbp), %rdx
	movq	-8(%rbp), %rax
	leaq	stbi__stdio_callbacks(%rip), %rsi
	movq	%rax, %rdi
	call	stbi__start_callbacks
	nop
	leave
	.cfi_def_cfa 7, 8
	ret
	.cfi_endproc
.LFE511:
	.size	stbi__start_file, .-stbi__start_file
	.type	stbi__rewind, @function
stbi__rewind:
.LFB512:
	.cfi_startproc
	endbr64
	pushq	%rbp
	.cfi_def_cfa_offset 16
	.cfi_offset 6, -16
	movq	%rsp, %rbp
	.cfi_def_cfa_register 6
	movq	%rdi, -8(%rbp)
	movq	-8(%rbp), %rax
	movq	208(%rax), %rdx
	movq	-8(%rbp), %rax
	movq	%rdx, 192(%rax)
	movq	-8(%rbp), %rax
	movq	216(%rax), %rdx
	movq	-8(%rbp), %rax
	movq	%rdx, 200(%rax)
	nop
	popq	%rbp
	.cfi_def_cfa 7, 8
	ret
	.cfi_endproc
.LFE512:
	.size	stbi__rewind, .-stbi__rewind
	.section	.tbss,"awT",@nobits
	.align 8
	.type	stbi__g_failure_reason, @object
	.size	stbi__g_failure_reason, 8
stbi__g_failure_reason:
	.zero	8
	.text
	.globl	stbi_failure_reason
	.type	stbi_failure_reason, @function
stbi_failure_reason:
.LFB513:
	.cfi_startproc
	endbr64
	pushq	%rbp
	.cfi_def_cfa_offset 16
	.cfi_offset 6, -16
	movq	%rsp, %rbp
	.cfi_def_cfa_register 6
	movq	%fs:stbi__g_failure_reason@tpoff, %rax
	popq	%rbp
	.cfi_def_cfa 7, 8
	ret
	.cfi_endproc
.LFE513:
	.size	stbi_failure_reason, .-stbi_failure_reason
	.type	stbi__err, @function
stbi__err:
.LFB514:
	.cfi_startproc
	endbr64
	pushq	%rbp
	.cfi_def_cfa_offset 16
	.cfi_offset 6, -16
	movq	%rsp, %rbp
	.cfi_def_cfa_register 6
	movq	%rdi, -8(%rbp)
	movq	-8(%rbp), %rax
	movq	%rax, %fs:stbi__g_failure_reason@tpoff
	movl	$0, %eax
	popq	%rbp
	.cfi_def_cfa 7, 8
	ret
	.cfi_endproc
.LFE514:
	.size	stbi__err, .-stbi__err
	.type	stbi__malloc, @function
stbi__malloc:
.LFB515:
	.cfi_startproc
	endbr64
	pushq	%rbp
	.cfi_def_cfa_offset 16
	.cfi_offset 6, -16
	movq	%rsp, %rbp
	.cfi_def_cfa_register 6
	subq	$16, %rsp
	movq	%rdi, -8(%rbp)
	movq	-8(%rbp), %rax
	movq	%rax, %rdi
	call	malloc@PLT
	leave
	.cfi_def_cfa 7, 8
	ret
	.cfi_endproc
.LFE515:
	.size	stbi__malloc, .-stbi__malloc
	.type	stbi__addsizes_valid, @function
stbi__addsizes_valid:
.LFB516:
	.cfi_startproc
	endbr64
	pushq	%rbp
	.cfi_def_cfa_offset 16
	.cfi_offset 6, -16
	movq	%rsp, %rbp
	.cfi_def_cfa_register 6
	movl	%edi, -4(%rbp)
	movl	%esi, -8(%rbp)
	cmpl	$0, -8(%rbp)
	jns	.L24
	movl	$0, %eax
	jmp	.L25
.L24:
	movl	$2147483647, %eax
	subl	-8(%rbp), %eax
	cmpl	%eax, -4(%rbp)
	setle	%al
	movzbl	%al, %eax
.L25:
	popq	%rbp
	.cfi_def_cfa 7, 8
	ret
	.cfi_endproc
.LFE516:
	.size	stbi__addsizes_valid, .-stbi__addsizes_valid
	.type	stbi__mul2sizes_valid, @function
stbi__mul2sizes_valid:
.LFB517:
	.cfi_startproc
	endbr64
	pushq	%rbp
	.cfi_def_cfa_offset 16
	.cfi_offset 6, -16
	movq	%rsp, %rbp
	.cfi_def_cfa_register 6
	movl	%edi, -4(%rbp)
	movl	%esi, -8(%rbp)
	cmpl	$0, -4(%rbp)
	js	.L27
	cmpl	$0, -8(%rbp)
	jns	.L28
.L27:
	movl	$0, %eax
	jmp	.L29
.L28:
	cmpl	$0, -8(%rbp)
	jne	.L30
	movl	$1, %eax
	jmp	.L29
.L30:
	movl	$2147483647, %eax
	cltd
	idivl	-8(%rbp)
	cmpl	%eax, -4(%rbp)
	setle	%al
	movzbl	%al, %eax
.L29:
	popq	%rbp
	.cfi_def_cfa 7, 8
	ret
	.cfi_endproc
.LFE517:
	.size	stbi__mul2sizes_valid, .-stbi__mul2sizes_valid
	.type	stbi__mad2sizes_valid, @function
stbi__mad2sizes_valid:
.LFB518:
	.cfi_startproc
	endbr64
	pushq	%rbp
	.cfi_def_cfa_offset 16
	.cfi_offset 6, -16
	movq	%rsp, %rbp
	.cfi_def_cfa_register 6
	subq	$16, %rsp
	movl	%edi, -4(%rbp)
	movl	%esi, -8(%rbp)
	movl	%edx, -12(%rbp)
	movl	-8(%rbp), %edx
	movl	-4(%rbp), %eax
	movl	%edx, %esi
	movl	%eax, %edi
	call	stbi__mul2sizes_valid
	testl	%eax, %eax
	je	.L32
	movl	-4(%rbp), %eax
	imull	-8(%rbp), %eax
	movl	-12(%rbp), %edx
	movl	%edx, %esi
	movl	%eax, %edi
	call	stbi__addsizes_valid
	testl	%eax, %eax
	je	.L32
	movl	$1, %eax
	jmp	.L34
.L32:
	movl	$0, %eax
.L34:
	leave
	.cfi_def_cfa 7, 8
	ret
	.cfi_endproc
.LFE518:
	.size	stbi__mad2sizes_valid, .-stbi__mad2sizes_valid
	.type	stbi__mad3sizes_valid, @function
stbi__mad3sizes_valid:
.LFB519:
	.cfi_startproc
	endbr64
	pushq	%rbp
	.cfi_def_cfa_offset 16
	.cfi_offset 6, -16
	movq	%rsp, %rbp
	.cfi_def_cfa_register 6
	subq	$16, %rsp
	movl	%edi, -4(%rbp)
	movl	%esi, -8(%rbp)
	movl	%edx, -12(%rbp)
	movl	%ecx, -16(%rbp)
	movl	-8(%rbp), %edx
	movl	-4(%rbp), %eax
	movl	%edx, %esi
	movl	%eax, %edi
	call	stbi__mul2sizes_valid
	testl	%eax, %eax
	je	.L36
	movl	-4(%rbp), %eax
	imull	-8(%rbp), %eax
	movl	-12(%rbp), %edx
	movl	%edx, %esi
	movl	%eax, %edi
	call	stbi__mul2sizes_valid
	testl	%eax, %eax
	je	.L36
	movl	-4(%rbp), %eax
	imull	-8(%rbp), %eax
	imull	-12(%rbp), %eax
	movl	-16(%rbp), %edx
	movl	%edx, %esi
	movl	%eax, %edi
	call	stbi__addsizes_valid
	testl	%eax, %eax
	je	.L36
	movl	$1, %eax
	jmp	.L38
.L36:
	movl	$0, %eax
.L38:
	leave
	.cfi_def_cfa 7, 8
	ret
	.cfi_endproc
.LFE519:
	.size	stbi__mad3sizes_valid, .-stbi__mad3sizes_valid
	.type	stbi__mad4sizes_valid, @function
stbi__mad4sizes_valid:
.LFB520:
	.cfi_startproc
	endbr64
	pushq	%rbp
	.cfi_def_cfa_offset 16
	.cfi_offset 6, -16
	movq	%rsp, %rbp
	.cfi_def_cfa_register 6
	subq	$24, %rsp
	movl	%edi, -4(%rbp)
	movl	%esi, -8(%rbp)
	movl	%edx, -12(%rbp)
	movl	%ecx, -16(%rbp)
	movl	%r8d, -20(%rbp)
	movl	-8(%rbp), %edx
	movl	-4(%rbp), %eax
	movl	%edx, %esi
	movl	%eax, %edi
	call	stbi__mul2sizes_valid
	testl	%eax, %eax
	je	.L40
	movl	-4(%rbp), %eax
	imull	-8(%rbp), %eax
	movl	-12(%rbp), %edx
	movl	%edx, %esi
	movl	%eax, %edi
	call	stbi__mul2sizes_valid
	testl	%eax, %eax
	je	.L40
	movl	-4(%rbp), %eax
	imull	-8(%rbp), %eax
	imull	-12(%rbp), %eax
	movl	-16(%rbp), %edx
	movl	%edx, %esi
	movl	%eax, %edi
	call	stbi__mul2sizes_valid
	testl	%eax, %eax
	je	.L40
	movl	-4(%rbp), %eax
	imull	-8(%rbp), %eax
	imull	-12(%rbp), %eax
	imull	-16(%rbp), %eax
	movl	-20(%rbp), %edx
	movl	%edx, %esi
	movl	%eax, %edi
	call	stbi__addsizes_valid
	testl	%eax, %eax
	je	.L40
	movl	$1, %eax
	jmp	.L42
.L40:
	movl	$0, %eax
.L42:
	leave
	.cfi_def_cfa 7, 8
	ret
	.cfi_endproc
.LFE520:
	.size	stbi__mad4sizes_valid, .-stbi__mad4sizes_valid
	.type	stbi__malloc_mad2, @function
stbi__malloc_mad2:
.LFB521:
	.cfi_startproc
	endbr64
	pushq	%rbp
	.cfi_def_cfa_offset 16
	.cfi_offset 6, -16
	movq	%rsp, %rbp
	.cfi_def_cfa_register 6
	subq	$16, %rsp
	movl	%edi, -4(%rbp)
	movl	%esi, -8(%rbp)
	movl	%edx, -12(%rbp)
	movl	-12(%rbp), %edx
	movl	-8(%rbp), %ecx
	movl	-4(%rbp), %eax
	movl	%ecx, %esi
	movl	%eax, %edi
	call	stbi__mad2sizes_valid
	testl	%eax, %eax
	jne	.L44
	movl	$0, %eax
	jmp	.L45
.L44:
	movl	-4(%rbp), %eax
	imull	-8(%rbp), %eax
	movl	%eax, %edx
	movl	-12(%rbp), %eax
	addl	%edx, %eax
	cltq
	movq	%rax, %rdi
	call	stbi__malloc
.L45:
	leave
	.cfi_def_cfa 7, 8
	ret
	.cfi_endproc
.LFE521:
	.size	stbi__malloc_mad2, .-stbi__malloc_mad2
	.type	stbi__malloc_mad3, @function
stbi__malloc_mad3:
.LFB522:
	.cfi_startproc
	endbr64
	pushq	%rbp
	.cfi_def_cfa_offset 16
	.cfi_offset 6, -16
	movq	%rsp, %rbp
	.cfi_def_cfa_register 6
	subq	$16, %rsp
	movl	%edi, -4(%rbp)
	movl	%esi, -8(%rbp)
	movl	%edx, -12(%rbp)
	movl	%ecx, -16(%rbp)
	movl	-16(%rbp), %ecx
	movl	-12(%rbp), %edx
	movl	-8(%rbp), %esi
	movl	-4(%rbp), %eax
	movl	%eax, %edi
	call	stbi__mad3sizes_valid
	testl	%eax, %eax
	jne	.L47
	movl	$0, %eax
	jmp	.L48
.L47:
	movl	-4(%rbp), %eax
	imull	-8(%rbp), %eax
	imull	-12(%rbp), %eax
	movl	%eax, %edx
	movl	-16(%rbp), %eax
	addl	%edx, %eax
	cltq
	movq	%rax, %rdi
	call	stbi__malloc
.L48:
	leave
	.cfi_def_cfa 7, 8
	ret
	.cfi_endproc
.LFE522:
	.size	stbi__malloc_mad3, .-stbi__malloc_mad3
	.type	stbi__malloc_mad4, @function
stbi__malloc_mad4:
.LFB523:
	.cfi_startproc
	endbr64
	pushq	%rbp
	.cfi_def_cfa_offset 16
	.cfi_offset 6, -16
	movq	%rsp, %rbp
	.cfi_def_cfa_register 6
	subq	$32, %rsp
	movl	%edi, -4(%rbp)
	movl	%esi, -8(%rbp)
	movl	%edx, -12(%rbp)
	movl	%ecx, -16(%rbp)
	movl	%r8d, -20(%rbp)
	movl	-20(%rbp), %edi
	movl	-16(%rbp), %ecx
	movl	-12(%rbp), %edx
	movl	-8(%rbp), %esi
	movl	-4(%rbp), %eax
	movl	%edi, %r8d
	movl	%eax, %edi
	call	stbi__mad4sizes_valid
	testl	%eax, %eax
	jne	.L50
	movl	$0, %eax
	jmp	.L51
.L50:
	movl	-4(%rbp), %eax
	imull	-8(%rbp), %eax
	imull	-12(%rbp), %eax
	imull	-16(%rbp), %eax
	movl	%eax, %edx
	movl	-20(%rbp), %eax
	addl	%edx, %eax
	cltq
	movq	%rax, %rdi
	call	stbi__malloc
.L51:
	leave
	.cfi_def_cfa 7, 8
	ret
	.cfi_endproc
.LFE523:
	.size	stbi__malloc_mad4, .-stbi__malloc_mad4
	.globl	stbi_image_free
	.type	stbi_image_free, @function
stbi_image_free:
.LFB524:
	.cfi_startproc
	endbr64
	pushq	%rbp
	.cfi_def_cfa_offset 16
	.cfi_offset 6, -16
	movq	%rsp, %rbp
	.cfi_def_cfa_register 6
	subq	$16, %rsp
	movq	%rdi, -8(%rbp)
	movq	-8(%rbp), %rax
	movq	%rax, %rdi
	call	free@PLT
	nop
	leave
	.cfi_def_cfa 7, 8
	ret
	.cfi_endproc
.LFE524:
	.size	stbi_image_free, .-stbi_image_free
	.local	stbi__vertically_flip_on_load_global
	.comm	stbi__vertically_flip_on_load_global,4,4
	.globl	stbi_set_flip_vertically_on_load
	.type	stbi_set_flip_vertically_on_load, @function
stbi_set_flip_vertically_on_load:
.LFB525:
	.cfi_startproc
	endbr64
	pushq	%rbp
	.cfi_def_cfa_offset 16
	.cfi_offset 6, -16
	movq	%rsp, %rbp
	.cfi_def_cfa_register 6
	movl	%edi, -4(%rbp)
	movl	-4(%rbp), %eax
	movl	%eax, stbi__vertically_flip_on_load_global(%rip)
	nop
	popq	%rbp
	.cfi_def_cfa 7, 8
	ret
	.cfi_endproc
.LFE525:
	.size	stbi_set_flip_vertically_on_load, .-stbi_set_flip_vertically_on_load
	.section	.tbss
	.align 4
	.type	stbi__vertically_flip_on_load_local, @object
	.size	stbi__vertically_flip_on_load_local, 4
stbi__vertically_flip_on_load_local:
	.zero	4
	.align 4
	.type	stbi__vertically_flip_on_load_set, @object
	.size	stbi__vertically_flip_on_load_set, 4
stbi__vertically_flip_on_load_set:
	.zero	4
	.text
	.globl	stbi_set_flip_vertically_on_load_thread
	.type	stbi_set_flip_vertically_on_load_thread, @function
stbi_set_flip_vertically_on_load_thread:
.LFB526:
	.cfi_startproc
	endbr64
	pushq	%rbp
	.cfi_def_cfa_offset 16
	.cfi_offset 6, -16
	movq	%rsp, %rbp
	.cfi_def_cfa_register 6
	movl	%edi, -4(%rbp)
	movl	-4(%rbp), %eax
	movl	%eax, %fs:stbi__vertically_flip_on_load_local@tpoff
	movl	$1, %fs:stbi__vertically_flip_on_load_set@tpoff
	nop
	popq	%rbp
	.cfi_def_cfa 7, 8
	ret
	.cfi_endproc
.LFE526:
	.size	stbi_set_flip_vertically_on_load_thread, .-stbi_set_flip_vertically_on_load_thread
	.section	.rodata
.LC0:
	.string	"unknown image type"
	.text
	.type	stbi__load_main, @function
stbi__load_main:
.LFB527:
	.cfi_startproc
	endbr64
	pushq	%rbp
	.cfi_def_cfa_offset 16
	.cfi_offset 6, -16
	movq	%rsp, %rbp
	.cfi_def_cfa_register 6
	subq	$64, %rsp
	movq	%rdi, -24(%rbp)
	movq	%rsi, -32(%rbp)
	movq	%rdx, -40(%rbp)
	movq	%rcx, -48(%rbp)
	movl	%r8d, -52(%rbp)
	movq	%r9, -64(%rbp)
	movq	-64(%rbp), %rax
	movl	$12, %edx
	movl	$0, %esi
	movq	%rax, %rdi
	call	memset@PLT
	movq	-64(%rbp), %rax
	movl	$8, (%rax)
	movq	-64(%rbp), %rax
	movl	$0, 8(%rax)
	movq	-64(%rbp), %rax
	movl	$0, 4(%rax)
	movq	-24(%rbp), %rax
	movq	%rax, %rdi
	call	stbi__png_test
	testl	%eax, %eax
	je	.L56
	movq	-64(%rbp), %r8
	movl	-52(%rbp), %edi
	movq	-48(%rbp), %rcx
	movq	-40(%rbp), %rdx
	movq	-32(%rbp), %rsi
	movq	-24(%rbp), %rax
	movq	%r8, %r9
	movl	%edi, %r8d
	movq	%rax, %rdi
	call	stbi__png_load
	jmp	.L57
.L56:
	movq	-24(%rbp), %rax
	movq	%rax, %rdi
	call	stbi__bmp_test
	testl	%eax, %eax
	je	.L58
	movq	-64(%rbp), %r8
	movl	-52(%rbp), %edi
	movq	-48(%rbp), %rcx
	movq	-40(%rbp), %rdx
	movq	-32(%rbp), %rsi
	movq	-24(%rbp), %rax
	movq	%r8, %r9
	movl	%edi, %r8d
	movq	%rax, %rdi
	call	stbi__bmp_load
	jmp	.L57
.L58:
	movq	-24(%rbp), %rax
	movq	%rax, %rdi
	call	stbi__gif_test
	testl	%eax, %eax
	je	.L59
	movq	-64(%rbp), %r8
	movl	-52(%rbp), %edi
	movq	-48(%rbp), %rcx
	movq	-40(%rbp), %rdx
	movq	-32(%rbp), %rsi
	movq	-24(%rbp), %rax
	movq	%r8, %r9
	movl	%edi, %r8d
	movq	%rax, %rdi
	call	stbi__gif_load
	jmp	.L57
.L59:
	movq	-24(%rbp), %rax
	movq	%rax, %rdi
	call	stbi__psd_test
	testl	%eax, %eax
	je	.L60
	movq	-64(%rbp), %r9
	movl	-52(%rbp), %r8d
	movq	-48(%rbp), %rcx
	movq	-40(%rbp), %rdx
	movq	-32(%rbp), %rsi
	movq	-24(%rbp), %rax
	subq	$8, %rsp
	movl	16(%rbp), %edi
	pushq	%rdi
	movq	%rax, %rdi
	call	stbi__psd_load
	addq	$16, %rsp
	jmp	.L57
.L60:
	movq	-24(%rbp), %rax
	movq	%rax, %rdi
	call	stbi__pic_test
	testl	%eax, %eax
	je	.L61
	movq	-64(%rbp), %r8
	movl	-52(%rbp), %edi
	movq	-48(%rbp), %rcx
	movq	-40(%rbp), %rdx
	movq	-32(%rbp), %rsi
	movq	-24(%rbp), %rax
	movq	%r8, %r9
	movl	%edi, %r8d
	movq	%rax, %rdi
	call	stbi__pic_load
	jmp	.L57
.L61:
	movq	-24(%rbp), %rax
	movq	%rax, %rdi
	call	stbi__jpeg_test
	testl	%eax, %eax
	je	.L62
	movq	-64(%rbp), %r8
	movl	-52(%rbp), %edi
	movq	-48(%rbp), %rcx
	movq	-40(%rbp), %rdx
	movq	-32(%rbp), %rsi
	movq	-24(%rbp), %rax
	movq	%r8, %r9
	movl	%edi, %r8d
	movq	%rax, %rdi
	call	stbi__jpeg_load
	jmp	.L57
.L62:
	movq	-24(%rbp), %rax
	movq	%rax, %rdi
	call	stbi__pnm_test
	testl	%eax, %eax
	je	.L63
	movq	-64(%rbp), %r8
	movl	-52(%rbp), %edi
	movq	-48(%rbp), %rcx
	movq	-40(%rbp), %rdx
	movq	-32(%rbp), %rsi
	movq	-24(%rbp), %rax
	movq	%r8, %r9
	movl	%edi, %r8d
	movq	%rax, %rdi
	call	stbi__pnm_load
	jmp	.L57
.L63:
	movq	-24(%rbp), %rax
	movq	%rax, %rdi
	call	stbi__hdr_test
	testl	%eax, %eax
	je	.L64
	movq	-64(%rbp), %r8
	movl	-52(%rbp), %edi
	movq	-48(%rbp), %rcx
	movq	-40(%rbp), %rdx
	movq	-32(%rbp), %rsi
	movq	-24(%rbp), %rax
	movq	%r8, %r9
	movl	%edi, %r8d
	movq	%rax, %rdi
	call	stbi__hdr_load
	movq	%rax, -8(%rbp)
	cmpl	$0, -52(%rbp)
	jne	.L65
	movq	-48(%rbp), %rax
	movl	(%rax), %eax
	jmp	.L66
.L65:
	movl	-52(%rbp), %eax
.L66:
	movq	-40(%rbp), %rdx
	movl	(%rdx), %edx
	movq	-32(%rbp), %rcx
	movl	(%rcx), %esi
	movq	-8(%rbp), %rdi
	movl	%eax, %ecx
	call	stbi__hdr_to_ldr
	jmp	.L57
.L64:
	movq	-24(%rbp), %rax
	movq	%rax, %rdi
	call	stbi__tga_test
	testl	%eax, %eax
	je	.L67
	movq	-64(%rbp), %r8
	movl	-52(%rbp), %edi
	movq	-48(%rbp), %rcx
	movq	-40(%rbp), %rdx
	movq	-32(%rbp), %rsi
	movq	-24(%rbp), %rax
	movq	%r8, %r9
	movl	%edi, %r8d
	movq	%rax, %rdi
	call	stbi__tga_load
	jmp	.L57
.L67:
	leaq	.LC0(%rip), %rdi
	call	stbi__err
	movl	$0, %eax
.L57:
	leave
	.cfi_def_cfa 7, 8
	ret
	.cfi_endproc
.LFE527:
	.size	stbi__load_main, .-stbi__load_main
	.section	.rodata
.LC1:
	.string	"outofmem"
	.text
	.type	stbi__convert_16_to_8, @function
stbi__convert_16_to_8:
.LFB528:
	.cfi_startproc
	endbr64
	pushq	%rbp
	.cfi_def_cfa_offset 16
	.cfi_offset 6, -16
	movq	%rsp, %rbp
	.cfi_def_cfa_register 6
	subq	$48, %rsp
	movq	%rdi, -24(%rbp)
	movl	%esi, -28(%rbp)
	movl	%edx, -32(%rbp)
	movl	%ecx, -36(%rbp)
	movl	-28(%rbp), %eax
	imull	-32(%rbp), %eax
	movl	-36(%rbp), %edx
	imull	%edx, %eax
	movl	%eax, -12(%rbp)
	movl	-12(%rbp), %eax
	cltq
	movq	%rax, %rdi
	call	stbi__malloc
	movq	%rax, -8(%rbp)
	cmpq	$0, -8(%rbp)
	jne	.L69
	leaq	.LC1(%rip), %rdi
	call	stbi__err
	movl	$0, %eax
	jmp	.L70
.L69:
	movl	$0, -16(%rbp)
	jmp	.L71
.L72:
	movl	-16(%rbp), %eax
	cltq
	leaq	(%rax,%rax), %rdx
	movq	-24(%rbp), %rax
	addq	%rdx, %rax
	movzwl	(%rax), %eax
	shrw	$8, %ax
	movl	%eax, %ecx
	movl	-16(%rbp), %eax
	movslq	%eax, %rdx
	movq	-8(%rbp), %rax
	addq	%rdx, %rax
	movl	%ecx, %edx
	movb	%dl, (%rax)
	addl	$1, -16(%rbp)
.L71:
	movl	-16(%rbp), %eax
	cmpl	-12(%rbp), %eax
	jl	.L72
	movq	-24(%rbp), %rax
	movq	%rax, %rdi
	call	free@PLT
	movq	-8(%rbp), %rax
.L70:
	leave
	.cfi_def_cfa 7, 8
	ret
	.cfi_endproc
.LFE528:
	.size	stbi__convert_16_to_8, .-stbi__convert_16_to_8
	.type	stbi__convert_8_to_16, @function
stbi__convert_8_to_16:
.LFB529:
	.cfi_startproc
	endbr64
	pushq	%rbp
	.cfi_def_cfa_offset 16
	.cfi_offset 6, -16
	movq	%rsp, %rbp
	.cfi_def_cfa_register 6
	subq	$48, %rsp
	movq	%rdi, -24(%rbp)
	movl	%esi, -28(%rbp)
	movl	%edx, -32(%rbp)
	movl	%ecx, -36(%rbp)
	movl	-28(%rbp), %eax
	imull	-32(%rbp), %eax
	movl	-36(%rbp), %edx
	imull	%edx, %eax
	movl	%eax, -12(%rbp)
	movl	-12(%rbp), %eax
	addl	%eax, %eax
	cltq
	movq	%rax, %rdi
	call	stbi__malloc
	movq	%rax, -8(%rbp)
	cmpq	$0, -8(%rbp)
	jne	.L74
	leaq	.LC1(%rip), %rdi
	call	stbi__err
	movl	$0, %eax
	jmp	.L75
.L74:
	movl	$0, -16(%rbp)
	jmp	.L76
.L77:
	movl	-16(%rbp), %eax
	movslq	%eax, %rdx
	movq	-24(%rbp), %rax
	addq	%rdx, %rax
	movzbl	(%rax), %eax
	movzbl	%al, %eax
	sall	$8, %eax
	movl	%eax, %ecx
	movl	-16(%rbp), %eax
	movslq	%eax, %rdx
	movq	-24(%rbp), %rax
	addq	%rdx, %rax
	movzbl	(%rax), %eax
	movzbl	%al, %edx
	movl	-16(%rbp), %eax
	cltq
	leaq	(%rax,%rax), %rsi
	movq	-8(%rbp), %rax
	addq	%rsi, %rax
	addl	%ecx, %edx
	movw	%dx, (%rax)
	addl	$1, -16(%rbp)
.L76:
	movl	-16(%rbp), %eax
	cmpl	-12(%rbp), %eax
	jl	.L77
	movq	-24(%rbp), %rax
	movq	%rax, %rdi
	call	free@PLT
	movq	-8(%rbp), %rax
.L75:
	leave
	.cfi_def_cfa 7, 8
	ret
	.cfi_endproc
.LFE529:
	.size	stbi__convert_8_to_16, .-stbi__convert_8_to_16
	.type	stbi__vertical_flip, @function
stbi__vertical_flip:
.LFB530:
	.cfi_startproc
	endbr64
	pushq	%rbp
	.cfi_def_cfa_offset 16
	.cfi_offset 6, -16
	movq	%rsp, %rbp
	.cfi_def_cfa_register 6
	subq	$2160, %rsp
	movq	%rdi, -2136(%rbp)
	movl	%esi, -2140(%rbp)
	movl	%edx, -2144(%rbp)
	movl	%ecx, -2148(%rbp)
	movq	%fs:40, %rax
	movq	%rax, -8(%rbp)
	xorl	%eax, %eax
	movl	-2140(%rbp), %eax
	movslq	%eax, %rdx
	movl	-2148(%rbp), %eax
	cltq
	imulq	%rdx, %rax
	movq	%rax, -2088(%rbp)
	movq	-2136(%rbp), %rax
	movq	%rax, -2080(%rbp)
	movl	$0, -2116(%rbp)
	jmp	.L79
.L82:
	movl	-2116(%rbp), %eax
	cltq
	imulq	-2088(%rbp), %rax
	movq	%rax, %rdx
	movq	-2080(%rbp), %rax
	addq	%rdx, %rax
	movq	%rax, -2112(%rbp)
	movl	-2144(%rbp), %eax
	subl	-2116(%rbp), %eax
	subl	$1, %eax
	cltq
	imulq	-2088(%rbp), %rax
	movq	%rax, %rdx
	movq	-2080(%rbp), %rax
	addq	%rdx, %rax
	movq	%rax, -2104(%rbp)
	movq	-2088(%rbp), %rax
	movq	%rax, -2096(%rbp)
	jmp	.L80
.L81:
	movl	$2048, %eax
	cmpq	$2048, -2096(%rbp)
	cmovbe	-2096(%rbp), %rax
	movq	%rax, -2072(%rbp)
	movq	-2072(%rbp), %rdx
	movq	-2112(%rbp), %rcx
	leaq	-2064(%rbp), %rax
	movq	%rcx, %rsi
	movq	%rax, %rdi
	call	memcpy@PLT
	movq	-2072(%rbp), %rdx
	movq	-2104(%rbp), %rcx
	movq	-2112(%rbp), %rax
	movq	%rcx, %rsi
	movq	%rax, %rdi
	call	memcpy@PLT
	movq	-2072(%rbp), %rdx
	leaq	-2064(%rbp), %rcx
	movq	-2104(%rbp), %rax
	movq	%rcx, %rsi
	movq	%rax, %rdi
	call	memcpy@PLT
	movq	-2072(%rbp), %rax
	addq	%rax, -2112(%rbp)
	movq	-2072(%rbp), %rax
	addq	%rax, -2104(%rbp)
	movq	-2072(%rbp), %rax
	subq	%rax, -2096(%rbp)
.L80:
	cmpq	$0, -2096(%rbp)
	jne	.L81
	addl	$1, -2116(%rbp)
.L79:
	movl	-2144(%rbp), %eax
	sarl	%eax
	cmpl	%eax, -2116(%rbp)
	jl	.L82
	nop
	movq	-8(%rbp), %rax
	xorq	%fs:40, %rax
	je	.L83
	call	__stack_chk_fail@PLT
.L83:
	leave
	.cfi_def_cfa 7, 8
	ret
	.cfi_endproc
.LFE530:
	.size	stbi__vertical_flip, .-stbi__vertical_flip
	.type	stbi__vertical_flip_slices, @function
stbi__vertical_flip_slices:
.LFB531:
	.cfi_startproc
	endbr64
	pushq	%rbp
	.cfi_def_cfa_offset 16
	.cfi_offset 6, -16
	movq	%rsp, %rbp
	.cfi_def_cfa_register 6
	subq	$48, %rsp
	movq	%rdi, -24(%rbp)
	movl	%esi, -28(%rbp)
	movl	%edx, -32(%rbp)
	movl	%ecx, -36(%rbp)
	movl	%r8d, -40(%rbp)
	movl	-28(%rbp), %eax
	imull	-32(%rbp), %eax
	movl	-40(%rbp), %edx
	imull	%edx, %eax
	movl	%eax, -12(%rbp)
	movq	-24(%rbp), %rax
	movq	%rax, -8(%rbp)
	movl	$0, -16(%rbp)
	jmp	.L85
.L86:
	movl	-40(%rbp), %ecx
	movl	-32(%rbp), %edx
	movl	-28(%rbp), %esi
	movq	-8(%rbp), %rax
	movq	%rax, %rdi
	call	stbi__vertical_flip
	movl	-12(%rbp), %eax
	cltq
	addq	%rax, -8(%rbp)
	addl	$1, -16(%rbp)
.L85:
	movl	-16(%rbp), %eax
	cmpl	-36(%rbp), %eax
	jl	.L86
	nop
	nop
	leave
	.cfi_def_cfa 7, 8
	ret
	.cfi_endproc
.LFE531:
	.size	stbi__vertical_flip_slices, .-stbi__vertical_flip_slices
	.section	.rodata
.LC2:
	.string	"stb_image.h"
	.align 8
.LC3:
	.string	"ri.bits_per_channel == 8 || ri.bits_per_channel == 16"
	.text
	.type	stbi__load_and_postprocess_8bit, @function
stbi__load_and_postprocess_8bit:
.LFB532:
	.cfi_startproc
	endbr64
	pushq	%rbp
	.cfi_def_cfa_offset 16
	.cfi_offset 6, -16
	movq	%rsp, %rbp
	.cfi_def_cfa_register 6
	subq	$96, %rsp
	movq	%rdi, -56(%rbp)
	movq	%rsi, -64(%rbp)
	movq	%rdx, -72(%rbp)
	movq	%rcx, -80(%rbp)
	movl	%r8d, -84(%rbp)
	movq	%fs:40, %rax
	movq	%rax, -8(%rbp)
	xorl	%eax, %eax
	leaq	-20(%rbp), %r8
	movl	-84(%rbp), %edi
	movq	-80(%rbp), %rcx
	movq	-72(%rbp), %rdx
	movq	-64(%rbp), %rsi
	movq	-56(%rbp), %rax
	subq	$8, %rsp
	pushq	$8
	movq	%r8, %r9
	movl	%edi, %r8d
	movq	%rax, %rdi
	call	stbi__load_main
	addq	$16, %rsp
	movq	%rax, -32(%rbp)
	cmpq	$0, -32(%rbp)
	jne	.L88
	movl	$0, %eax
	jmp	.L99
.L88:
	movl	-20(%rbp), %eax
	cmpl	$8, %eax
	je	.L90
	movl	-20(%rbp), %eax
	cmpl	$16, %eax
	je	.L90
	leaq	__PRETTY_FUNCTION__.6684(%rip), %rcx
	movl	$1249, %edx
	leaq	.LC2(%rip), %rsi
	leaq	.LC3(%rip), %rdi
	call	__assert_fail@PLT
.L90:
	movl	-20(%rbp), %eax
	cmpl	$8, %eax
	je	.L91
	cmpl	$0, -84(%rbp)
	jne	.L92
	movq	-80(%rbp), %rax
	movl	(%rax), %eax
	jmp	.L93
.L92:
	movl	-84(%rbp), %eax
.L93:
	movq	-72(%rbp), %rdx
	movl	(%rdx), %edx
	movq	-64(%rbp), %rcx
	movl	(%rcx), %esi
	movq	-32(%rbp), %rdi
	movl	%eax, %ecx
	call	stbi__convert_16_to_8
	movq	%rax, -32(%rbp)
	movl	$8, -20(%rbp)
.L91:
	movl	%fs:stbi__vertically_flip_on_load_set@tpoff, %eax
	testl	%eax, %eax
	je	.L94
	movl	%fs:stbi__vertically_flip_on_load_local@tpoff, %eax
	testl	%eax, %eax
	setne	%al
	jmp	.L95
.L94:
	movl	stbi__vertically_flip_on_load_global(%rip), %eax
	testl	%eax, %eax
	setne	%al
.L95:
	testb	%al, %al
	je	.L96
	cmpl	$0, -84(%rbp)
	jne	.L97
	movq	-80(%rbp), %rax
	movl	(%rax), %eax
	jmp	.L98
.L97:
	movl	-84(%rbp), %eax
.L98:
	movl	%eax, -36(%rbp)
	movq	-72(%rbp), %rax
	movl	(%rax), %edx
	movq	-64(%rbp), %rax
	movl	(%rax), %esi
	movl	-36(%rbp), %ecx
	movq	-32(%rbp), %rax
	movq	%rax, %rdi
	call	stbi__vertical_flip
.L96:
	movq	-32(%rbp), %rax
.L99:
	movq	-8(%rbp), %rdi
	xorq	%fs:40, %rdi
	je	.L100
	call	__stack_chk_fail@PLT
.L100:
	leave
	.cfi_def_cfa 7, 8
	ret
	.cfi_endproc
.LFE532:
	.size	stbi__load_and_postprocess_8bit, .-stbi__load_and_postprocess_8bit
	.type	stbi__load_and_postprocess_16bit, @function
stbi__load_and_postprocess_16bit:
.LFB533:
	.cfi_startproc
	endbr64
	pushq	%rbp
	.cfi_def_cfa_offset 16
	.cfi_offset 6, -16
	movq	%rsp, %rbp
	.cfi_def_cfa_register 6
	subq	$96, %rsp
	movq	%rdi, -56(%rbp)
	movq	%rsi, -64(%rbp)
	movq	%rdx, -72(%rbp)
	movq	%rcx, -80(%rbp)
	movl	%r8d, -84(%rbp)
	movq	%fs:40, %rax
	movq	%rax, -8(%rbp)
	xorl	%eax, %eax
	leaq	-20(%rbp), %r8
	movl	-84(%rbp), %edi
	movq	-80(%rbp), %rcx
	movq	-72(%rbp), %rdx
	movq	-64(%rbp), %rsi
	movq	-56(%rbp), %rax
	subq	$8, %rsp
	pushq	$16
	movq	%r8, %r9
	movl	%edi, %r8d
	movq	%rax, %rdi
	call	stbi__load_main
	addq	$16, %rsp
	movq	%rax, -32(%rbp)
	cmpq	$0, -32(%rbp)
	jne	.L102
	movl	$0, %eax
	jmp	.L113
.L102:
	movl	-20(%rbp), %eax
	cmpl	$8, %eax
	je	.L104
	movl	-20(%rbp), %eax
	cmpl	$16, %eax
	je	.L104
	leaq	__PRETTY_FUNCTION__.6695(%rip), %rcx
	movl	$1275, %edx
	leaq	.LC2(%rip), %rsi
	leaq	.LC3(%rip), %rdi
	call	__assert_fail@PLT
.L104:
	movl	-20(%rbp), %eax
	cmpl	$16, %eax
	je	.L105
	cmpl	$0, -84(%rbp)
	jne	.L106
	movq	-80(%rbp), %rax
	movl	(%rax), %eax
	jmp	.L107
.L106:
	movl	-84(%rbp), %eax
.L107:
	movq	-72(%rbp), %rdx
	movl	(%rdx), %edx
	movq	-64(%rbp), %rcx
	movl	(%rcx), %esi
	movq	-32(%rbp), %rdi
	movl	%eax, %ecx
	call	stbi__convert_8_to_16
	movq	%rax, -32(%rbp)
	movl	$16, -20(%rbp)
.L105:
	movl	%fs:stbi__vertically_flip_on_load_set@tpoff, %eax
	testl	%eax, %eax
	je	.L108
	movl	%fs:stbi__vertically_flip_on_load_local@tpoff, %eax
	testl	%eax, %eax
	setne	%al
	jmp	.L109
.L108:
	movl	stbi__vertically_flip_on_load_global(%rip), %eax
	testl	%eax, %eax
	setne	%al
.L109:
	testb	%al, %al
	je	.L110
	cmpl	$0, -84(%rbp)
	jne	.L111
	movq	-80(%rbp), %rax
	movl	(%rax), %eax
	jmp	.L112
.L111:
	movl	-84(%rbp), %eax
.L112:
	movl	%eax, -36(%rbp)
	movl	-36(%rbp), %eax
	cltq
	addl	%eax, %eax
	movl	%eax, %ecx
	movq	-72(%rbp), %rax
	movl	(%rax), %edx
	movq	-64(%rbp), %rax
	movl	(%rax), %esi
	movq	-32(%rbp), %rax
	movq	%rax, %rdi
	call	stbi__vertical_flip
.L110:
	movq	-32(%rbp), %rax
.L113:
	movq	-8(%rbp), %rdi
	xorq	%fs:40, %rdi
	je	.L114
	call	__stack_chk_fail@PLT
.L114:
	leave
	.cfi_def_cfa 7, 8
	ret
	.cfi_endproc
.LFE533:
	.size	stbi__load_and_postprocess_16bit, .-stbi__load_and_postprocess_16bit
	.type	stbi__float_postprocess, @function
stbi__float_postprocess:
.LFB534:
	.cfi_startproc
	endbr64
	pushq	%rbp
	.cfi_def_cfa_offset 16
	.cfi_offset 6, -16
	movq	%rsp, %rbp
	.cfi_def_cfa_register 6
	subq	$64, %rsp
	movq	%rdi, -24(%rbp)
	movq	%rsi, -32(%rbp)
	movq	%rdx, -40(%rbp)
	movq	%rcx, -48(%rbp)
	movl	%r8d, -52(%rbp)
	movl	%fs:stbi__vertically_flip_on_load_set@tpoff, %eax
	testl	%eax, %eax
	je	.L116
	movl	%fs:stbi__vertically_flip_on_load_local@tpoff, %eax
	testl	%eax, %eax
	setne	%al
	jmp	.L117
.L116:
	movl	stbi__vertically_flip_on_load_global(%rip), %eax
	testl	%eax, %eax
	setne	%al
.L117:
	testb	%al, %al
	je	.L121
	cmpq	$0, -24(%rbp)
	je	.L121
	cmpl	$0, -52(%rbp)
	jne	.L119
	movq	-48(%rbp), %rax
	movl	(%rax), %eax
	jmp	.L120
.L119:
	movl	-52(%rbp), %eax
.L120:
	movl	%eax, -4(%rbp)
	movl	-4(%rbp), %eax
	cltq
	sall	$2, %eax
	movl	%eax, %ecx
	movq	-40(%rbp), %rax
	movl	(%rax), %edx
	movq	-32(%rbp), %rax
	movl	(%rax), %esi
	movq	-24(%rbp), %rax
	movq	%rax, %rdi
	call	stbi__vertical_flip
.L121:
	nop
	leave
	.cfi_def_cfa 7, 8
	ret
	.cfi_endproc
.LFE534:
	.size	stbi__float_postprocess, .-stbi__float_postprocess
	.type	stbi__fopen, @function
stbi__fopen:
.LFB535:
	.cfi_startproc
	endbr64
	pushq	%rbp
	.cfi_def_cfa_offset 16
	.cfi_offset 6, -16
	movq	%rsp, %rbp
	.cfi_def_cfa_register 6
	subq	$32, %rsp
	movq	%rdi, -24(%rbp)
	movq	%rsi, -32(%rbp)
	movq	-32(%rbp), %rdx
	movq	-24(%rbp), %rax
	movq	%rdx, %rsi
	movq	%rax, %rdi
	call	fopen@PLT
	movq	%rax, -8(%rbp)
	movq	-8(%rbp), %rax
	leave
	.cfi_def_cfa 7, 8
	ret
	.cfi_endproc
.LFE535:
	.size	stbi__fopen, .-stbi__fopen
	.section	.rodata
.LC4:
	.string	"rb"
.LC5:
	.string	"can't fopen"
	.text
	.globl	stbi_load
	.type	stbi_load, @function
stbi_load:
.LFB536:
	.cfi_startproc
	endbr64
	pushq	%rbp
	.cfi_def_cfa_offset 16
	.cfi_offset 6, -16
	movq	%rsp, %rbp
	.cfi_def_cfa_register 6
	subq	$64, %rsp
	movq	%rdi, -24(%rbp)
	movq	%rsi, -32(%rbp)
	movq	%rdx, -40(%rbp)
	movq	%rcx, -48(%rbp)
	movl	%r8d, -52(%rbp)
	movq	-24(%rbp), %rax
	leaq	.LC4(%rip), %rsi
	movq	%rax, %rdi
	call	stbi__fopen
	movq	%rax, -16(%rbp)
	cmpq	$0, -16(%rbp)
	jne	.L125
	leaq	.LC5(%rip), %rdi
	call	stbi__err
	movl	$0, %eax
	jmp	.L126
.L125:
	movl	-52(%rbp), %edi
	movq	-48(%rbp), %rcx
	movq	-40(%rbp), %rdx
	movq	-32(%rbp), %rsi
	movq	-16(%rbp), %rax
	movl	%edi, %r8d
	movq	%rax, %rdi
	call	stbi_load_from_file
	movq	%rax, -8(%rbp)
	movq	-16(%rbp), %rax
	movq	%rax, %rdi
	call	fclose@PLT
	movq	-8(%rbp), %rax
.L126:
	leave
	.cfi_def_cfa 7, 8
	ret
	.cfi_endproc
.LFE536:
	.size	stbi_load, .-stbi_load
	.globl	stbi_load_from_file
	.type	stbi_load_from_file, @function
stbi_load_from_file:
.LFB537:
	.cfi_startproc
	endbr64
	pushq	%rbp
	.cfi_def_cfa_offset 16
	.cfi_offset 6, -16
	movq	%rsp, %rbp
	.cfi_def_cfa_register 6
	subq	$304, %rsp
	movq	%rdi, -264(%rbp)
	movq	%rsi, -272(%rbp)
	movq	%rdx, -280(%rbp)
	movq	%rcx, -288(%rbp)
	movl	%r8d, -292(%rbp)
	movq	%fs:40, %rax
	movq	%rax, -8(%rbp)
	xorl	%eax, %eax
	movq	-264(%rbp), %rdx
	leaq	-240(%rbp), %rax
	movq	%rdx, %rsi
	movq	%rax, %rdi
	call	stbi__start_file
	movl	-292(%rbp), %edi
	movq	-288(%rbp), %rcx
	movq	-280(%rbp), %rdx
	movq	-272(%rbp), %rsi
	leaq	-240(%rbp), %rax
	movl	%edi, %r8d
	movq	%rax, %rdi
	call	stbi__load_and_postprocess_8bit
	movq	%rax, -248(%rbp)
	cmpq	$0, -248(%rbp)
	je	.L128
	movq	-40(%rbp), %rdx
	movq	-48(%rbp), %rax
	subq	%rax, %rdx
	movq	%rdx, %rax
	negl	%eax
	movslq	%eax, %rcx
	movq	-264(%rbp), %rax
	movl	$1, %edx
	movq	%rcx, %rsi
	movq	%rax, %rdi
	call	fseek@PLT
.L128:
	movq	-248(%rbp), %rax
	movq	-8(%rbp), %rcx
	xorq	%fs:40, %rcx
	je	.L130
	call	__stack_chk_fail@PLT
.L130:
	leave
	.cfi_def_cfa 7, 8
	ret
	.cfi_endproc
.LFE537:
	.size	stbi_load_from_file, .-stbi_load_from_file
	.globl	stbi_load_from_file_16
	.type	stbi_load_from_file_16, @function
stbi_load_from_file_16:
.LFB538:
	.cfi_startproc
	endbr64
	pushq	%rbp
	.cfi_def_cfa_offset 16
	.cfi_offset 6, -16
	movq	%rsp, %rbp
	.cfi_def_cfa_register 6
	subq	$304, %rsp
	movq	%rdi, -264(%rbp)
	movq	%rsi, -272(%rbp)
	movq	%rdx, -280(%rbp)
	movq	%rcx, -288(%rbp)
	movl	%r8d, -292(%rbp)
	movq	%fs:40, %rax
	movq	%rax, -8(%rbp)
	xorl	%eax, %eax
	movq	-264(%rbp), %rdx
	leaq	-240(%rbp), %rax
	movq	%rdx, %rsi
	movq	%rax, %rdi
	call	stbi__start_file
	movl	-292(%rbp), %edi
	movq	-288(%rbp), %rcx
	movq	-280(%rbp), %rdx
	movq	-272(%rbp), %rsi
	leaq	-240(%rbp), %rax
	movl	%edi, %r8d
	movq	%rax, %rdi
	call	stbi__load_and_postprocess_16bit
	movq	%rax, -248(%rbp)
	cmpq	$0, -248(%rbp)
	je	.L132
	movq	-40(%rbp), %rdx
	movq	-48(%rbp), %rax
	subq	%rax, %rdx
	movq	%rdx, %rax
	negl	%eax
	movslq	%eax, %rcx
	movq	-264(%rbp), %rax
	movl	$1, %edx
	movq	%rcx, %rsi
	movq	%rax, %rdi
	call	fseek@PLT
.L132:
	movq	-248(%rbp), %rax
	movq	-8(%rbp), %rcx
	xorq	%fs:40, %rcx
	je	.L134
	call	__stack_chk_fail@PLT
.L134:
	leave
	.cfi_def_cfa 7, 8
	ret
	.cfi_endproc
.LFE538:
	.size	stbi_load_from_file_16, .-stbi_load_from_file_16
	.globl	stbi_load_16
	.type	stbi_load_16, @function
stbi_load_16:
.LFB539:
	.cfi_startproc
	endbr64
	pushq	%rbp
	.cfi_def_cfa_offset 16
	.cfi_offset 6, -16
	movq	%rsp, %rbp
	.cfi_def_cfa_register 6
	subq	$64, %rsp
	movq	%rdi, -24(%rbp)
	movq	%rsi, -32(%rbp)
	movq	%rdx, -40(%rbp)
	movq	%rcx, -48(%rbp)
	movl	%r8d, -52(%rbp)
	movq	-24(%rbp), %rax
	leaq	.LC4(%rip), %rsi
	movq	%rax, %rdi
	call	stbi__fopen
	movq	%rax, -16(%rbp)
	cmpq	$0, -16(%rbp)
	jne	.L136
	leaq	.LC5(%rip), %rdi
	call	stbi__err
	movl	$0, %eax
	jmp	.L137
.L136:
	movl	-52(%rbp), %edi
	movq	-48(%rbp), %rcx
	movq	-40(%rbp), %rdx
	movq	-32(%rbp), %rsi
	movq	-16(%rbp), %rax
	movl	%edi, %r8d
	movq	%rax, %rdi
	call	stbi_load_from_file_16
	movq	%rax, -8(%rbp)
	movq	-16(%rbp), %rax
	movq	%rax, %rdi
	call	fclose@PLT
	movq	-8(%rbp), %rax
.L137:
	leave
	.cfi_def_cfa 7, 8
	ret
	.cfi_endproc
.LFE539:
	.size	stbi_load_16, .-stbi_load_16
	.globl	stbi_load_16_from_memory
	.type	stbi_load_16_from_memory, @function
stbi_load_16_from_memory:
.LFB540:
	.cfi_startproc
	endbr64
	pushq	%rbp
	.cfi_def_cfa_offset 16
	.cfi_offset 6, -16
	movq	%rsp, %rbp
	.cfi_def_cfa_register 6
	subq	$288, %rsp
	movq	%rdi, -248(%rbp)
	movl	%esi, -252(%rbp)
	movq	%rdx, -264(%rbp)
	movq	%rcx, -272(%rbp)
	movq	%r8, -280(%rbp)
	movl	%r9d, -256(%rbp)
	movq	%fs:40, %rax
	movq	%rax, -8(%rbp)
	xorl	%eax, %eax
	movl	-252(%rbp), %edx
	movq	-248(%rbp), %rcx
	leaq	-240(%rbp), %rax
	movq	%rcx, %rsi
	movq	%rax, %rdi
	call	stbi__start_mem
	movl	-256(%rbp), %edi
	movq	-280(%rbp), %rcx
	movq	-272(%rbp), %rdx
	movq	-264(%rbp), %rsi
	leaq	-240(%rbp), %rax
	movl	%edi, %r8d
	movq	%rax, %rdi
	call	stbi__load_and_postprocess_16bit
	movq	-8(%rbp), %rsi
	xorq	%fs:40, %rsi
	je	.L140
	call	__stack_chk_fail@PLT
.L140:
	leave
	.cfi_def_cfa 7, 8
	ret
	.cfi_endproc
.LFE540:
	.size	stbi_load_16_from_memory, .-stbi_load_16_from_memory
	.globl	stbi_load_16_from_callbacks
	.type	stbi_load_16_from_callbacks, @function
stbi_load_16_from_callbacks:
.LFB541:
	.cfi_startproc
	endbr64
	pushq	%rbp
	.cfi_def_cfa_offset 16
	.cfi_offset 6, -16
	movq	%rsp, %rbp
	.cfi_def_cfa_register 6
	subq	$288, %rsp
	movq	%rdi, -248(%rbp)
	movq	%rsi, -256(%rbp)
	movq	%rdx, -264(%rbp)
	movq	%rcx, -272(%rbp)
	movq	%r8, -280(%rbp)
	movl	%r9d, -284(%rbp)
	movq	%fs:40, %rax
	movq	%rax, -8(%rbp)
	xorl	%eax, %eax
	movq	-256(%rbp), %rdx
	movq	-248(%rbp), %rcx
	leaq	-240(%rbp), %rax
	movq	%rcx, %rsi
	movq	%rax, %rdi
	call	stbi__start_callbacks
	movl	-284(%rbp), %edi
	movq	-280(%rbp), %rcx
	movq	-272(%rbp), %rdx
	movq	-264(%rbp), %rsi
	leaq	-240(%rbp), %rax
	movl	%edi, %r8d
	movq	%rax, %rdi
	call	stbi__load_and_postprocess_16bit
	movq	-8(%rbp), %rsi
	xorq	%fs:40, %rsi
	je	.L143
	call	__stack_chk_fail@PLT
.L143:
	leave
	.cfi_def_cfa 7, 8
	ret
	.cfi_endproc
.LFE541:
	.size	stbi_load_16_from_callbacks, .-stbi_load_16_from_callbacks
	.globl	stbi_load_from_memory
	.type	stbi_load_from_memory, @function
stbi_load_from_memory:
.LFB542:
	.cfi_startproc
	endbr64
	pushq	%rbp
	.cfi_def_cfa_offset 16
	.cfi_offset 6, -16
	movq	%rsp, %rbp
	.cfi_def_cfa_register 6
	subq	$288, %rsp
	movq	%rdi, -248(%rbp)
	movl	%esi, -252(%rbp)
	movq	%rdx, -264(%rbp)
	movq	%rcx, -272(%rbp)
	movq	%r8, -280(%rbp)
	movl	%r9d, -256(%rbp)
	movq	%fs:40, %rax
	movq	%rax, -8(%rbp)
	xorl	%eax, %eax
	movl	-252(%rbp), %edx
	movq	-248(%rbp), %rcx
	leaq	-240(%rbp), %rax
	movq	%rcx, %rsi
	movq	%rax, %rdi
	call	stbi__start_mem
	movl	-256(%rbp), %edi
	movq	-280(%rbp), %rcx
	movq	-272(%rbp), %rdx
	movq	-264(%rbp), %rsi
	leaq	-240(%rbp), %rax
	movl	%edi, %r8d
	movq	%rax, %rdi
	call	stbi__load_and_postprocess_8bit
	movq	-8(%rbp), %rsi
	xorq	%fs:40, %rsi
	je	.L146
	call	__stack_chk_fail@PLT
.L146:
	leave
	.cfi_def_cfa 7, 8
	ret
	.cfi_endproc
.LFE542:
	.size	stbi_load_from_memory, .-stbi_load_from_memory
	.globl	stbi_load_from_callbacks
	.type	stbi_load_from_callbacks, @function
stbi_load_from_callbacks:
.LFB543:
	.cfi_startproc
	endbr64
	pushq	%rbp
	.cfi_def_cfa_offset 16
	.cfi_offset 6, -16
	movq	%rsp, %rbp
	.cfi_def_cfa_register 6
	subq	$288, %rsp
	movq	%rdi, -248(%rbp)
	movq	%rsi, -256(%rbp)
	movq	%rdx, -264(%rbp)
	movq	%rcx, -272(%rbp)
	movq	%r8, -280(%rbp)
	movl	%r9d, -284(%rbp)
	movq	%fs:40, %rax
	movq	%rax, -8(%rbp)
	xorl	%eax, %eax
	movq	-256(%rbp), %rdx
	movq	-248(%rbp), %rcx
	leaq	-240(%rbp), %rax
	movq	%rcx, %rsi
	movq	%rax, %rdi
	call	stbi__start_callbacks
	movl	-284(%rbp), %edi
	movq	-280(%rbp), %rcx
	movq	-272(%rbp), %rdx
	movq	-264(%rbp), %rsi
	leaq	-240(%rbp), %rax
	movl	%edi, %r8d
	movq	%rax, %rdi
	call	stbi__load_and_postprocess_8bit
	movq	-8(%rbp), %rsi
	xorq	%fs:40, %rsi
	je	.L149
	call	__stack_chk_fail@PLT
.L149:
	leave
	.cfi_def_cfa 7, 8
	ret
	.cfi_endproc
.LFE543:
	.size	stbi_load_from_callbacks, .-stbi_load_from_callbacks
	.globl	stbi_load_gif_from_memory
	.type	stbi_load_gif_from_memory, @function
stbi_load_gif_from_memory:
.LFB544:
	.cfi_startproc
	endbr64
	pushq	%rbp
	.cfi_def_cfa_offset 16
	.cfi_offset 6, -16
	movq	%rsp, %rbp
	.cfi_def_cfa_register 6
	subq	$320, %rsp
	movq	%rdi, -264(%rbp)
	movl	%esi, -268(%rbp)
	movq	%rdx, -280(%rbp)
	movq	%rcx, -288(%rbp)
	movq	%r8, -296(%rbp)
	movq	%r9, -304(%rbp)
	movq	16(%rbp), %rax
	movq	%rax, -312(%rbp)
	movq	%fs:40, %rax
	movq	%rax, -8(%rbp)
	xorl	%eax, %eax
	movl	-268(%rbp), %edx
	movq	-264(%rbp), %rcx
	leaq	-240(%rbp), %rax
	movq	%rcx, %rsi
	movq	%rax, %rdi
	call	stbi__start_mem
	movq	-312(%rbp), %r9
	movq	-304(%rbp), %r8
	movq	-296(%rbp), %rcx
	movq	-288(%rbp), %rdx
	movq	-280(%rbp), %rsi
	leaq	-240(%rbp), %rax
	subq	$8, %rsp
	movl	24(%rbp), %edi
	pushq	%rdi
	movq	%rax, %rdi
	call	stbi__load_gif_main
	addq	$16, %rsp
	movq	%rax, -248(%rbp)
	movl	%fs:stbi__vertically_flip_on_load_set@tpoff, %eax
	testl	%eax, %eax
	je	.L151
	movl	%fs:stbi__vertically_flip_on_load_local@tpoff, %eax
	testl	%eax, %eax
	setne	%al
	jmp	.L152
.L151:
	movl	stbi__vertically_flip_on_load_global(%rip), %eax
	testl	%eax, %eax
	setne	%al
.L152:
	testb	%al, %al
	je	.L153
	movq	-312(%rbp), %rax
	movl	(%rax), %edi
	movq	-304(%rbp), %rax
	movl	(%rax), %ecx
	movq	-296(%rbp), %rax
	movl	(%rax), %edx
	movq	-288(%rbp), %rax
	movl	(%rax), %esi
	movq	-248(%rbp), %rax
	movl	%edi, %r8d
	movq	%rax, %rdi
	call	stbi__vertical_flip_slices
.L153:
	movq	-248(%rbp), %rax
	movq	-8(%rbp), %rsi
	xorq	%fs:40, %rsi
	je	.L155
	call	__stack_chk_fail@PLT
.L155:
	leave
	.cfi_def_cfa 7, 8
	ret
	.cfi_endproc
.LFE544:
	.size	stbi_load_gif_from_memory, .-stbi_load_gif_from_memory
	.type	stbi__loadf_main, @function
stbi__loadf_main:
.LFB545:
	.cfi_startproc
	endbr64
	pushq	%rbp
	.cfi_def_cfa_offset 16
	.cfi_offset 6, -16
	movq	%rsp, %rbp
	.cfi_def_cfa_register 6
	subq	$96, %rsp
	movq	%rdi, -56(%rbp)
	movq	%rsi, -64(%rbp)
	movq	%rdx, -72(%rbp)
	movq	%rcx, -80(%rbp)
	movl	%r8d, -84(%rbp)
	movq	%fs:40, %rax
	movq	%rax, -8(%rbp)
	xorl	%eax, %eax
	movq	-56(%rbp), %rax
	movq	%rax, %rdi
	call	stbi__hdr_test
	testl	%eax, %eax
	je	.L157
	leaq	-20(%rbp), %r8
	movl	-84(%rbp), %edi
	movq	-80(%rbp), %rcx
	movq	-72(%rbp), %rdx
	movq	-64(%rbp), %rsi
	movq	-56(%rbp), %rax
	movq	%r8, %r9
	movl	%edi, %r8d
	movq	%rax, %rdi
	call	stbi__hdr_load
	movq	%rax, -32(%rbp)
	cmpq	$0, -32(%rbp)
	je	.L158
	movl	-84(%rbp), %edi
	movq	-80(%rbp), %rcx
	movq	-72(%rbp), %rdx
	movq	-64(%rbp), %rsi
	movq	-32(%rbp), %rax
	movl	%edi, %r8d
	movq	%rax, %rdi
	call	stbi__float_postprocess
.L158:
	movq	-32(%rbp), %rax
	jmp	.L159
.L157:
	movl	-84(%rbp), %edi
	movq	-80(%rbp), %rcx
	movq	-72(%rbp), %rdx
	movq	-64(%rbp), %rsi
	movq	-56(%rbp), %rax
	movl	%edi, %r8d
	movq	%rax, %rdi
	call	stbi__load_and_postprocess_8bit
	movq	%rax, -40(%rbp)
	cmpq	$0, -40(%rbp)
	je	.L160
	cmpl	$0, -84(%rbp)
	jne	.L161
	movq	-80(%rbp), %rax
	movl	(%rax), %eax
	jmp	.L162
.L161:
	movl	-84(%rbp), %eax
.L162:
	movq	-72(%rbp), %rdx
	movl	(%rdx), %edx
	movq	-64(%rbp), %rcx
	movl	(%rcx), %esi
	movq	-40(%rbp), %rdi
	movl	%eax, %ecx
	call	stbi__ldr_to_hdr
	jmp	.L159
.L160:
	leaq	.LC0(%rip), %rdi
	call	stbi__err
	movl	$0, %eax
.L159:
	movq	-8(%rbp), %rcx
	xorq	%fs:40, %rcx
	je	.L163
	call	__stack_chk_fail@PLT
.L163:
	leave
	.cfi_def_cfa 7, 8
	ret
	.cfi_endproc
.LFE545:
	.size	stbi__loadf_main, .-stbi__loadf_main
	.globl	stbi_loadf_from_memory
	.type	stbi_loadf_from_memory, @function
stbi_loadf_from_memory:
.LFB546:
	.cfi_startproc
	endbr64
	pushq	%rbp
	.cfi_def_cfa_offset 16
	.cfi_offset 6, -16
	movq	%rsp, %rbp
	.cfi_def_cfa_register 6
	subq	$288, %rsp
	movq	%rdi, -248(%rbp)
	movl	%esi, -252(%rbp)
	movq	%rdx, -264(%rbp)
	movq	%rcx, -272(%rbp)
	movq	%r8, -280(%rbp)
	movl	%r9d, -256(%rbp)
	movq	%fs:40, %rax
	movq	%rax, -8(%rbp)
	xorl	%eax, %eax
	movl	-252(%rbp), %edx
	movq	-248(%rbp), %rcx
	leaq	-240(%rbp), %rax
	movq	%rcx, %rsi
	movq	%rax, %rdi
	call	stbi__start_mem
	movl	-256(%rbp), %edi
	movq	-280(%rbp), %rcx
	movq	-272(%rbp), %rdx
	movq	-264(%rbp), %rsi
	leaq	-240(%rbp), %rax
	movl	%edi, %r8d
	movq	%rax, %rdi
	call	stbi__loadf_main
	movq	-8(%rbp), %rsi
	xorq	%fs:40, %rsi
	je	.L166
	call	__stack_chk_fail@PLT
.L166:
	leave
	.cfi_def_cfa 7, 8
	ret
	.cfi_endproc
.LFE546:
	.size	stbi_loadf_from_memory, .-stbi_loadf_from_memory
	.globl	stbi_loadf_from_callbacks
	.type	stbi_loadf_from_callbacks, @function
stbi_loadf_from_callbacks:
.LFB547:
	.cfi_startproc
	endbr64
	pushq	%rbp
	.cfi_def_cfa_offset 16
	.cfi_offset 6, -16
	movq	%rsp, %rbp
	.cfi_def_cfa_register 6
	subq	$288, %rsp
	movq	%rdi, -248(%rbp)
	movq	%rsi, -256(%rbp)
	movq	%rdx, -264(%rbp)
	movq	%rcx, -272(%rbp)
	movq	%r8, -280(%rbp)
	movl	%r9d, -284(%rbp)
	movq	%fs:40, %rax
	movq	%rax, -8(%rbp)
	xorl	%eax, %eax
	movq	-256(%rbp), %rdx
	movq	-248(%rbp), %rcx
	leaq	-240(%rbp), %rax
	movq	%rcx, %rsi
	movq	%rax, %rdi
	call	stbi__start_callbacks
	movl	-284(%rbp), %edi
	movq	-280(%rbp), %rcx
	movq	-272(%rbp), %rdx
	movq	-264(%rbp), %rsi
	leaq	-240(%rbp), %rax
	movl	%edi, %r8d
	movq	%rax, %rdi
	call	stbi__loadf_main
	movq	-8(%rbp), %rsi
	xorq	%fs:40, %rsi
	je	.L169
	call	__stack_chk_fail@PLT
.L169:
	leave
	.cfi_def_cfa 7, 8
	ret
	.cfi_endproc
.LFE547:
	.size	stbi_loadf_from_callbacks, .-stbi_loadf_from_callbacks
	.globl	stbi_loadf
	.type	stbi_loadf, @function
stbi_loadf:
.LFB548:
	.cfi_startproc
	endbr64
	pushq	%rbp
	.cfi_def_cfa_offset 16
	.cfi_offset 6, -16
	movq	%rsp, %rbp
	.cfi_def_cfa_register 6
	subq	$64, %rsp
	movq	%rdi, -24(%rbp)
	movq	%rsi, -32(%rbp)
	movq	%rdx, -40(%rbp)
	movq	%rcx, -48(%rbp)
	movl	%r8d, -52(%rbp)
	movq	-24(%rbp), %rax
	leaq	.LC4(%rip), %rsi
	movq	%rax, %rdi
	call	stbi__fopen
	movq	%rax, -16(%rbp)
	cmpq	$0, -16(%rbp)
	jne	.L171
	leaq	.LC5(%rip), %rdi
	call	stbi__err
	movl	$0, %eax
	jmp	.L172
.L171:
	movl	-52(%rbp), %edi
	movq	-48(%rbp), %rcx
	movq	-40(%rbp), %rdx
	movq	-32(%rbp), %rsi
	movq	-16(%rbp), %rax
	movl	%edi, %r8d
	movq	%rax, %rdi
	call	stbi_loadf_from_file
	movq	%rax, -8(%rbp)
	movq	-16(%rbp), %rax
	movq	%rax, %rdi
	call	fclose@PLT
	movq	-8(%rbp), %rax
.L172:
	leave
	.cfi_def_cfa 7, 8
	ret
	.cfi_endproc
.LFE548:
	.size	stbi_loadf, .-stbi_loadf
	.globl	stbi_loadf_from_file
	.type	stbi_loadf_from_file, @function
stbi_loadf_from_file:
.LFB549:
	.cfi_startproc
	endbr64
	pushq	%rbp
	.cfi_def_cfa_offset 16
	.cfi_offset 6, -16
	movq	%rsp, %rbp
	.cfi_def_cfa_register 6
	subq	$288, %rsp
	movq	%rdi, -248(%rbp)
	movq	%rsi, -256(%rbp)
	movq	%rdx, -264(%rbp)
	movq	%rcx, -272(%rbp)
	movl	%r8d, -276(%rbp)
	movq	%fs:40, %rax
	movq	%rax, -8(%rbp)
	xorl	%eax, %eax
	movq	-248(%rbp), %rdx
	leaq	-240(%rbp), %rax
	movq	%rdx, %rsi
	movq	%rax, %rdi
	call	stbi__start_file
	movl	-276(%rbp), %edi
	movq	-272(%rbp), %rcx
	movq	-264(%rbp), %rdx
	movq	-256(%rbp), %rsi
	leaq	-240(%rbp), %rax
	movl	%edi, %r8d
	movq	%rax, %rdi
	call	stbi__loadf_main
	movq	-8(%rbp), %rcx
	xorq	%fs:40, %rcx
	je	.L175
	call	__stack_chk_fail@PLT
.L175:
	leave
	.cfi_def_cfa 7, 8
	ret
	.cfi_endproc
.LFE549:
	.size	stbi_loadf_from_file, .-stbi_loadf_from_file
	.globl	stbi_is_hdr_from_memory
	.type	stbi_is_hdr_from_memory, @function
stbi_is_hdr_from_memory:
.LFB550:
	.cfi_startproc
	endbr64
	pushq	%rbp
	.cfi_def_cfa_offset 16
	.cfi_offset 6, -16
	movq	%rsp, %rbp
	.cfi_def_cfa_register 6
	subq	$256, %rsp
	movq	%rdi, -248(%rbp)
	movl	%esi, -252(%rbp)
	movq	%fs:40, %rax
	movq	%rax, -8(%rbp)
	xorl	%eax, %eax
	movl	-252(%rbp), %edx
	movq	-248(%rbp), %rcx
	leaq	-240(%rbp), %rax
	movq	%rcx, %rsi
	movq	%rax, %rdi
	call	stbi__start_mem
	leaq	-240(%rbp), %rax
	movq	%rax, %rdi
	call	stbi__hdr_test
	movq	-8(%rbp), %rcx
	xorq	%fs:40, %rcx
	je	.L178
	call	__stack_chk_fail@PLT
.L178:
	leave
	.cfi_def_cfa 7, 8
	ret
	.cfi_endproc
.LFE550:
	.size	stbi_is_hdr_from_memory, .-stbi_is_hdr_from_memory
	.globl	stbi_is_hdr
	.type	stbi_is_hdr, @function
stbi_is_hdr:
.LFB551:
	.cfi_startproc
	endbr64
	pushq	%rbp
	.cfi_def_cfa_offset 16
	.cfi_offset 6, -16
	movq	%rsp, %rbp
	.cfi_def_cfa_register 6
	subq	$32, %rsp
	movq	%rdi, -24(%rbp)
	movq	-24(%rbp), %rax
	leaq	.LC4(%rip), %rsi
	movq	%rax, %rdi
	call	stbi__fopen
	movq	%rax, -8(%rbp)
	movl	$0, -12(%rbp)
	cmpq	$0, -8(%rbp)
	je	.L180
	movq	-8(%rbp), %rax
	movq	%rax, %rdi
	call	stbi_is_hdr_from_file
	movl	%eax, -12(%rbp)
	movq	-8(%rbp), %rax
	movq	%rax, %rdi
	call	fclose@PLT
.L180:
	movl	-12(%rbp), %eax
	leave
	.cfi_def_cfa 7, 8
	ret
	.cfi_endproc
.LFE551:
	.size	stbi_is_hdr, .-stbi_is_hdr
	.globl	stbi_is_hdr_from_file
	.type	stbi_is_hdr_from_file, @function
stbi_is_hdr_from_file:
.LFB552:
	.cfi_startproc
	endbr64
	pushq	%rbp
	.cfi_def_cfa_offset 16
	.cfi_offset 6, -16
	movq	%rsp, %rbp
	.cfi_def_cfa_register 6
	subq	$272, %rsp
	movq	%rdi, -264(%rbp)
	movq	%fs:40, %rax
	movq	%rax, -8(%rbp)
	xorl	%eax, %eax
	movq	-264(%rbp), %rax
	movq	%rax, %rdi
	call	ftell@PLT
	movq	%rax, -248(%rbp)
	movq	-264(%rbp), %rdx
	leaq	-240(%rbp), %rax
	movq	%rdx, %rsi
	movq	%rax, %rdi
	call	stbi__start_file
	leaq	-240(%rbp), %rax
	movq	%rax, %rdi
	call	stbi__hdr_test
	movl	%eax, -252(%rbp)
	movq	-248(%rbp), %rcx
	movq	-264(%rbp), %rax
	movl	$0, %edx
	movq	%rcx, %rsi
	movq	%rax, %rdi
	call	fseek@PLT
	movl	-252(%rbp), %eax
	movq	-8(%rbp), %rcx
	xorq	%fs:40, %rcx
	je	.L184
	call	__stack_chk_fail@PLT
.L184:
	leave
	.cfi_def_cfa 7, 8
	ret
	.cfi_endproc
.LFE552:
	.size	stbi_is_hdr_from_file, .-stbi_is_hdr_from_file
	.globl	stbi_is_hdr_from_callbacks
	.type	stbi_is_hdr_from_callbacks, @function
stbi_is_hdr_from_callbacks:
.LFB553:
	.cfi_startproc
	endbr64
	pushq	%rbp
	.cfi_def_cfa_offset 16
	.cfi_offset 6, -16
	movq	%rsp, %rbp
	.cfi_def_cfa_register 6
	subq	$256, %rsp
	movq	%rdi, -248(%rbp)
	movq	%rsi, -256(%rbp)
	movq	%fs:40, %rax
	movq	%rax, -8(%rbp)
	xorl	%eax, %eax
	movq	-256(%rbp), %rdx
	movq	-248(%rbp), %rcx
	leaq	-240(%rbp), %rax
	movq	%rcx, %rsi
	movq	%rax, %rdi
	call	stbi__start_callbacks
	leaq	-240(%rbp), %rax
	movq	%rax, %rdi
	call	stbi__hdr_test
	movq	-8(%rbp), %rcx
	xorq	%fs:40, %rcx
	je	.L187
	call	__stack_chk_fail@PLT
.L187:
	leave
	.cfi_def_cfa 7, 8
	ret
	.cfi_endproc
.LFE553:
	.size	stbi_is_hdr_from_callbacks, .-stbi_is_hdr_from_callbacks
	.data
	.align 4
	.type	stbi__l2h_gamma, @object
	.size	stbi__l2h_gamma, 4
stbi__l2h_gamma:
	.long	1074580685
	.align 4
	.type	stbi__l2h_scale, @object
	.size	stbi__l2h_scale, 4
stbi__l2h_scale:
	.long	1065353216
	.text
	.globl	stbi_ldr_to_hdr_gamma
	.type	stbi_ldr_to_hdr_gamma, @function
stbi_ldr_to_hdr_gamma:
.LFB554:
	.cfi_startproc
	endbr64
	pushq	%rbp
	.cfi_def_cfa_offset 16
	.cfi_offset 6, -16
	movq	%rsp, %rbp
	.cfi_def_cfa_register 6
	movss	%xmm0, -4(%rbp)
	movss	-4(%rbp), %xmm0
	movss	%xmm0, stbi__l2h_gamma(%rip)
	nop
	popq	%rbp
	.cfi_def_cfa 7, 8
	ret
	.cfi_endproc
.LFE554:
	.size	stbi_ldr_to_hdr_gamma, .-stbi_ldr_to_hdr_gamma
	.globl	stbi_ldr_to_hdr_scale
	.type	stbi_ldr_to_hdr_scale, @function
stbi_ldr_to_hdr_scale:
.LFB555:
	.cfi_startproc
	endbr64
	pushq	%rbp
	.cfi_def_cfa_offset 16
	.cfi_offset 6, -16
	movq	%rsp, %rbp
	.cfi_def_cfa_register 6
	movss	%xmm0, -4(%rbp)
	movss	-4(%rbp), %xmm0
	movss	%xmm0, stbi__l2h_scale(%rip)
	nop
	popq	%rbp
	.cfi_def_cfa 7, 8
	ret
	.cfi_endproc
.LFE555:
	.size	stbi_ldr_to_hdr_scale, .-stbi_ldr_to_hdr_scale
	.data
	.align 4
	.type	stbi__h2l_gamma_i, @object
	.size	stbi__h2l_gamma_i, 4
stbi__h2l_gamma_i:
	.long	1055439406
	.align 4
	.type	stbi__h2l_scale_i, @object
	.size	stbi__h2l_scale_i, 4
stbi__h2l_scale_i:
	.long	1065353216
	.text
	.globl	stbi_hdr_to_ldr_gamma
	.type	stbi_hdr_to_ldr_gamma, @function
stbi_hdr_to_ldr_gamma:
.LFB556:
	.cfi_startproc
	endbr64
	pushq	%rbp
	.cfi_def_cfa_offset 16
	.cfi_offset 6, -16
	movq	%rsp, %rbp
	.cfi_def_cfa_register 6
	movss	%xmm0, -4(%rbp)
	movss	.LC6(%rip), %xmm0
	divss	-4(%rbp), %xmm0
	movss	%xmm0, stbi__h2l_gamma_i(%rip)
	nop
	popq	%rbp
	.cfi_def_cfa 7, 8
	ret
	.cfi_endproc
.LFE556:
	.size	stbi_hdr_to_ldr_gamma, .-stbi_hdr_to_ldr_gamma
	.globl	stbi_hdr_to_ldr_scale
	.type	stbi_hdr_to_ldr_scale, @function
stbi_hdr_to_ldr_scale:
.LFB557:
	.cfi_startproc
	endbr64
	pushq	%rbp
	.cfi_def_cfa_offset 16
	.cfi_offset 6, -16
	movq	%rsp, %rbp
	.cfi_def_cfa_register 6
	movss	%xmm0, -4(%rbp)
	movss	.LC6(%rip), %xmm0
	divss	-4(%rbp), %xmm0
	movss	%xmm0, stbi__h2l_scale_i(%rip)
	nop
	popq	%rbp
	.cfi_def_cfa 7, 8
	ret
	.cfi_endproc
.LFE557:
	.size	stbi_hdr_to_ldr_scale, .-stbi_hdr_to_ldr_scale
	.type	stbi__refill_buffer, @function
stbi__refill_buffer:
.LFB558:
	.cfi_startproc
	endbr64
	pushq	%rbp
	.cfi_def_cfa_offset 16
	.cfi_offset 6, -16
	movq	%rsp, %rbp
	.cfi_def_cfa_register 6
	subq	$32, %rsp
	movq	%rdi, -24(%rbp)
	movq	-24(%rbp), %rax
	movq	16(%rax), %rcx
	movq	-24(%rbp), %rax
	movl	52(%rax), %edx
	movq	-24(%rbp), %rax
	leaq	56(%rax), %rsi
	movq	-24(%rbp), %rax
	movq	40(%rax), %rax
	movq	%rax, %rdi
	call	*%rcx
	movl	%eax, -4(%rbp)
	movq	-24(%rbp), %rax
	movl	184(%rax), %edx
	movq	-24(%rbp), %rax
	movq	192(%rax), %rcx
	movq	-24(%rbp), %rax
	movq	208(%rax), %rax
	subq	%rax, %rcx
	movq	%rcx, %rax
	addl	%eax, %edx
	movq	-24(%rbp), %rax
	movl	%edx, 184(%rax)
	cmpl	$0, -4(%rbp)
	jne	.L193
	movq	-24(%rbp), %rax
	movl	$0, 48(%rax)
	movq	-24(%rbp), %rax
	leaq	56(%rax), %rdx
	movq	-24(%rbp), %rax
	movq	%rdx, 192(%rax)
	movq	-24(%rbp), %rax
	addq	$56, %rax
	leaq	1(%rax), %rdx
	movq	-24(%rbp), %rax
	movq	%rdx, 200(%rax)
	movq	-24(%rbp), %rax
	movq	192(%rax), %rax
	movb	$0, (%rax)
	jmp	.L195
.L193:
	movq	-24(%rbp), %rax
	leaq	56(%rax), %rdx
	movq	-24(%rbp), %rax
	movq	%rdx, 192(%rax)
	movq	-24(%rbp), %rax
	leaq	56(%rax), %rdx
	movl	-4(%rbp), %eax
	cltq
	addq	%rax, %rdx
	movq	-24(%rbp), %rax
	movq	%rdx, 200(%rax)
.L195:
	nop
	leave
	.cfi_def_cfa 7, 8
	ret
	.cfi_endproc
.LFE558:
	.size	stbi__refill_buffer, .-stbi__refill_buffer
	.type	stbi__get8, @function
stbi__get8:
.LFB559:
	.cfi_startproc
	endbr64
	pushq	%rbp
	.cfi_def_cfa_offset 16
	.cfi_offset 6, -16
	movq	%rsp, %rbp
	.cfi_def_cfa_register 6
	subq	$16, %rsp
	movq	%rdi, -8(%rbp)
	movq	-8(%rbp), %rax
	movq	192(%rax), %rdx
	movq	-8(%rbp), %rax
	movq	200(%rax), %rax
	cmpq	%rax, %rdx
	jnb	.L197
	movq	-8(%rbp), %rax
	movq	192(%rax), %rax
	leaq	1(%rax), %rcx
	movq	-8(%rbp), %rdx
	movq	%rcx, 192(%rdx)
	movzbl	(%rax), %eax
	jmp	.L198
.L197:
	movq	-8(%rbp), %rax
	movl	48(%rax), %eax
	testl	%eax, %eax
	je	.L199
	movq	-8(%rbp), %rax
	movq	%rax, %rdi
	call	stbi__refill_buffer
	movq	-8(%rbp), %rax
	movq	192(%rax), %rax
	leaq	1(%rax), %rcx
	movq	-8(%rbp), %rdx
	movq	%rcx, 192(%rdx)
	movzbl	(%rax), %eax
	jmp	.L198
.L199:
	movl	$0, %eax
.L198:
	leave
	.cfi_def_cfa 7, 8
	ret
	.cfi_endproc
.LFE559:
	.size	stbi__get8, .-stbi__get8
	.type	stbi__at_eof, @function
stbi__at_eof:
.LFB560:
	.cfi_startproc
	endbr64
	pushq	%rbp
	.cfi_def_cfa_offset 16
	.cfi_offset 6, -16
	movq	%rsp, %rbp
	.cfi_def_cfa_register 6
	subq	$16, %rsp
	movq	%rdi, -8(%rbp)
	movq	-8(%rbp), %rax
	movq	16(%rax), %rax
	testq	%rax, %rax
	je	.L201
	movq	-8(%rbp), %rax
	movq	32(%rax), %rdx
	movq	-8(%rbp), %rax
	movq	40(%rax), %rax
	movq	%rax, %rdi
	call	*%rdx
	testl	%eax, %eax
	jne	.L202
	movl	$0, %eax
	jmp	.L203
.L202:
	movq	-8(%rbp), %rax
	movl	48(%rax), %eax
	testl	%eax, %eax
	jne	.L201
	movl	$1, %eax
	jmp	.L203
.L201:
	movq	-8(%rbp), %rax
	movq	192(%rax), %rdx
	movq	-8(%rbp), %rax
	movq	200(%rax), %rax
	cmpq	%rax, %rdx
	setnb	%al
	movzbl	%al, %eax
.L203:
	leave
	.cfi_def_cfa 7, 8
	ret
	.cfi_endproc
.LFE560:
	.size	stbi__at_eof, .-stbi__at_eof
	.type	stbi__skip, @function
stbi__skip:
.LFB561:
	.cfi_startproc
	endbr64
	pushq	%rbp
	.cfi_def_cfa_offset 16
	.cfi_offset 6, -16
	movq	%rsp, %rbp
	.cfi_def_cfa_register 6
	subq	$32, %rsp
	movq	%rdi, -24(%rbp)
	movl	%esi, -28(%rbp)
	cmpl	$0, -28(%rbp)
	je	.L209
	cmpl	$0, -28(%rbp)
	jns	.L207
	movq	-24(%rbp), %rax
	movq	200(%rax), %rdx
	movq	-24(%rbp), %rax
	movq	%rdx, 192(%rax)
	jmp	.L204
.L207:
	movq	-24(%rbp), %rax
	movq	16(%rax), %rax
	testq	%rax, %rax
	je	.L208
	movq	-24(%rbp), %rax
	movq	200(%rax), %rdx
	movq	-24(%rbp), %rax
	movq	192(%rax), %rax
	subq	%rax, %rdx
	movq	%rdx, %rax
	movl	%eax, -4(%rbp)
	movl	-4(%rbp), %eax
	cmpl	-28(%rbp), %eax
	jge	.L208
	movq	-24(%rbp), %rax
	movq	200(%rax), %rdx
	movq	-24(%rbp), %rax
	movq	%rdx, 192(%rax)
	movq	-24(%rbp), %rax
	movq	24(%rax), %rcx
	movl	-28(%rbp), %eax
	subl	-4(%rbp), %eax
	movl	%eax, %edx
	movq	-24(%rbp), %rax
	movq	40(%rax), %rax
	movl	%edx, %esi
	movq	%rax, %rdi
	call	*%rcx
	jmp	.L204
.L208:
	movq	-24(%rbp), %rax
	movq	192(%rax), %rdx
	movl	-28(%rbp), %eax
	cltq
	addq	%rax, %rdx
	movq	-24(%rbp), %rax
	movq	%rdx, 192(%rax)
	jmp	.L204
.L209:
	nop
.L204:
	leave
	.cfi_def_cfa 7, 8
	ret
	.cfi_endproc
.LFE561:
	.size	stbi__skip, .-stbi__skip
	.type	stbi__getn, @function
stbi__getn:
.LFB562:
	.cfi_startproc
	endbr64
	pushq	%rbp
	.cfi_def_cfa_offset 16
	.cfi_offset 6, -16
	movq	%rsp, %rbp
	.cfi_def_cfa_register 6
	subq	$48, %rsp
	movq	%rdi, -24(%rbp)
	movq	%rsi, -32(%rbp)
	movl	%edx, -36(%rbp)
	movq	-24(%rbp), %rax
	movq	16(%rax), %rax
	testq	%rax, %rax
	je	.L211
	movq	-24(%rbp), %rax
	movq	200(%rax), %rdx
	movq	-24(%rbp), %rax
	movq	192(%rax), %rax
	subq	%rax, %rdx
	movq	%rdx, %rax
	movl	%eax, -12(%rbp)
	movl	-12(%rbp), %eax
	cmpl	-36(%rbp), %eax
	jge	.L211
	movl	-12(%rbp), %eax
	movslq	%eax, %rdx
	movq	-24(%rbp), %rax
	movq	192(%rax), %rcx
	movq	-32(%rbp), %rax
	movq	%rcx, %rsi
	movq	%rax, %rdi
	call	memcpy@PLT
	movq	-24(%rbp), %rax
	movq	16(%rax), %rcx
	movl	-36(%rbp), %eax
	subl	-12(%rbp), %eax
	movl	%eax, %edx
	movl	-12(%rbp), %eax
	movslq	%eax, %rsi
	movq	-32(%rbp), %rax
	addq	%rax, %rsi
	movq	-24(%rbp), %rax
	movq	40(%rax), %rax
	movq	%rax, %rdi
	call	*%rcx
	movl	%eax, -8(%rbp)
	movl	-36(%rbp), %eax
	subl	-12(%rbp), %eax
	cmpl	%eax, -8(%rbp)
	sete	%al
	movzbl	%al, %eax
	movl	%eax, -4(%rbp)
	movq	-24(%rbp), %rax
	movq	200(%rax), %rdx
	movq	-24(%rbp), %rax
	movq	%rdx, 192(%rax)
	movl	-4(%rbp), %eax
	jmp	.L212
.L211:
	movq	-24(%rbp), %rax
	movq	192(%rax), %rdx
	movl	-36(%rbp), %eax
	cltq
	addq	%rax, %rdx
	movq	-24(%rbp), %rax
	movq	200(%rax), %rax
	cmpq	%rax, %rdx
	ja	.L213
	movl	-36(%rbp), %eax
	movslq	%eax, %rdx
	movq	-24(%rbp), %rax
	movq	192(%rax), %rcx
	movq	-32(%rbp), %rax
	movq	%rcx, %rsi
	movq	%rax, %rdi
	call	memcpy@PLT
	movq	-24(%rbp), %rax
	movq	192(%rax), %rdx
	movl	-36(%rbp), %eax
	cltq
	addq	%rax, %rdx
	movq	-24(%rbp), %rax
	movq	%rdx, 192(%rax)
	movl	$1, %eax
	jmp	.L212
.L213:
	movl	$0, %eax
.L212:
	leave
	.cfi_def_cfa 7, 8
	ret
	.cfi_endproc
.LFE562:
	.size	stbi__getn, .-stbi__getn
	.type	stbi__get16be, @function
stbi__get16be:
.LFB563:
	.cfi_startproc
	endbr64
	pushq	%rbp
	.cfi_def_cfa_offset 16
	.cfi_offset 6, -16
	movq	%rsp, %rbp
	.cfi_def_cfa_register 6
	pushq	%rbx
	subq	$40, %rsp
	.cfi_offset 3, -24
	movq	%rdi, -40(%rbp)
	movq	-40(%rbp), %rax
	movq	%rax, %rdi
	call	stbi__get8
	movzbl	%al, %eax
	movl	%eax, -20(%rbp)
	movl	-20(%rbp), %eax
	sall	$8, %eax
	movl	%eax, %ebx
	movq	-40(%rbp), %rax
	movq	%rax, %rdi
	call	stbi__get8
	movzbl	%al, %eax
	addl	%ebx, %eax
	addq	$40, %rsp
	popq	%rbx
	popq	%rbp
	.cfi_def_cfa 7, 8
	ret
	.cfi_endproc
.LFE563:
	.size	stbi__get16be, .-stbi__get16be
	.type	stbi__get32be, @function
stbi__get32be:
.LFB564:
	.cfi_startproc
	endbr64
	pushq	%rbp
	.cfi_def_cfa_offset 16
	.cfi_offset 6, -16
	movq	%rsp, %rbp
	.cfi_def_cfa_register 6
	pushq	%rbx
	subq	$40, %rsp
	.cfi_offset 3, -24
	movq	%rdi, -40(%rbp)
	movq	-40(%rbp), %rax
	movq	%rax, %rdi
	call	stbi__get16be
	movl	%eax, -20(%rbp)
	movl	-20(%rbp), %eax
	sall	$16, %eax
	movl	%eax, %ebx
	movq	-40(%rbp), %rax
	movq	%rax, %rdi
	call	stbi__get16be
	addl	%ebx, %eax
	addq	$40, %rsp
	popq	%rbx
	popq	%rbp
	.cfi_def_cfa 7, 8
	ret
	.cfi_endproc
.LFE564:
	.size	stbi__get32be, .-stbi__get32be
	.type	stbi__get16le, @function
stbi__get16le:
.LFB565:
	.cfi_startproc
	endbr64
	pushq	%rbp
	.cfi_def_cfa_offset 16
	.cfi_offset 6, -16
	movq	%rsp, %rbp
	.cfi_def_cfa_register 6
	subq	$32, %rsp
	movq	%rdi, -24(%rbp)
	movq	-24(%rbp), %rax
	movq	%rax, %rdi
	call	stbi__get8
	movzbl	%al, %eax
	movl	%eax, -4(%rbp)
	movq	-24(%rbp), %rax
	movq	%rax, %rdi
	call	stbi__get8
	movzbl	%al, %eax
	sall	$8, %eax
	movl	%eax, %edx
	movl	-4(%rbp), %eax
	addl	%edx, %eax
	leave
	.cfi_def_cfa 7, 8
	ret
	.cfi_endproc
.LFE565:
	.size	stbi__get16le, .-stbi__get16le
	.type	stbi__get32le, @function
stbi__get32le:
.LFB566:
	.cfi_startproc
	endbr64
	pushq	%rbp
	.cfi_def_cfa_offset 16
	.cfi_offset 6, -16
	movq	%rsp, %rbp
	.cfi_def_cfa_register 6
	subq	$32, %rsp
	movq	%rdi, -24(%rbp)
	movq	-24(%rbp), %rax
	movq	%rax, %rdi
	call	stbi__get16le
	movl	%eax, -4(%rbp)
	movq	-24(%rbp), %rax
	movq	%rax, %rdi
	call	stbi__get16le
	sall	$16, %eax
	addl	%eax, -4(%rbp)
	movl	-4(%rbp), %eax
	leave
	.cfi_def_cfa 7, 8
	ret
	.cfi_endproc
.LFE566:
	.size	stbi__get32le, .-stbi__get32le
	.type	stbi__compute_y, @function
stbi__compute_y:
.LFB567:
	.cfi_startproc
	endbr64
	pushq	%rbp
	.cfi_def_cfa_offset 16
	.cfi_offset 6, -16
	movq	%rsp, %rbp
	.cfi_def_cfa_register 6
	movl	%edi, -4(%rbp)
	movl	%esi, -8(%rbp)
	movl	%edx, -12(%rbp)
	movl	-4(%rbp), %eax
	imull	$77, %eax, %edx
	movl	-8(%rbp), %eax
	imull	$150, %eax, %eax
	addl	%eax, %edx
	movl	-12(%rbp), %eax
	imull	$29, %eax, %eax
	addl	%edx, %eax
	sarl	$8, %eax
	popq	%rbp
	.cfi_def_cfa 7, 8
	ret
	.cfi_endproc
.LFE567:
	.size	stbi__compute_y, .-stbi__compute_y
	.section	.rodata
	.align 8
.LC7:
	.string	"req_comp >= 1 && req_comp <= 4"
.LC8:
	.string	"0"
	.text
	.type	stbi__convert_format, @function
stbi__convert_format:
.LFB568:
	.cfi_startproc
	endbr64
	pushq	%rbp
	.cfi_def_cfa_offset 16
	.cfi_offset 6, -16
	movq	%rsp, %rbp
	.cfi_def_cfa_register 6
	subq	$64, %rsp
	movq	%rdi, -40(%rbp)
	movl	%esi, -44(%rbp)
	movl	%edx, -48(%rbp)
	movl	%ecx, -52(%rbp)
	movl	%r8d, -56(%rbp)
	movl	-48(%rbp), %eax
	cmpl	-44(%rbp), %eax
	jne	.L225
	movq	-40(%rbp), %rax
	jmp	.L226
.L225:
	cmpl	$0, -48(%rbp)
	jle	.L227
	cmpl	$4, -48(%rbp)
	jle	.L272
.L227:
	leaq	__PRETTY_FUNCTION__.6934(%rip), %rcx
	movl	$1741, %edx
	leaq	.LC2(%rip), %rsi
	leaq	.LC7(%rip), %rdi
	call	__assert_fail@PLT
.L272:
	movl	-56(%rbp), %edx
	movl	-52(%rbp), %esi
	movl	-48(%rbp), %eax
	movl	$0, %ecx
	movl	%eax, %edi
	call	stbi__malloc_mad3
	movq	%rax, -8(%rbp)
	cmpq	$0, -8(%rbp)
	jne	.L229
	movq	-40(%rbp), %rax
	movq	%rax, %rdi
	call	free@PLT
	leaq	.LC1(%rip), %rdi
	call	stbi__err
	movl	$0, %eax
	jmp	.L226
.L229:
	movl	$0, -28(%rbp)
	jmp	.L230
.L270:
	movl	-28(%rbp), %eax
	imull	-52(%rbp), %eax
	movl	%eax, %edx
	movl	-44(%rbp), %eax
	imull	%edx, %eax
	movl	%eax, %edx
	movq	-40(%rbp), %rax
	addq	%rdx, %rax
	movq	%rax, -24(%rbp)
	movl	-28(%rbp), %eax
	imull	-52(%rbp), %eax
	movl	%eax, %edx
	movl	-48(%rbp), %eax
	imull	%edx, %eax
	movl	%eax, %edx
	movq	-8(%rbp), %rax
	addq	%rdx, %rax
	movq	%rax, -16(%rbp)
	movl	-44(%rbp), %eax
	leal	0(,%rax,8), %edx
	movl	-48(%rbp), %eax
	addl	%edx, %eax
	subl	$10, %eax
	cmpl	$25, %eax
	ja	.L271
	movl	%eax, %eax
	leaq	0(,%rax,4), %rdx
	leaq	.L233(%rip), %rax
	movl	(%rdx,%rax), %eax
	cltq
	leaq	.L233(%rip), %rdx
	addq	%rdx, %rax
	notrack jmp	*%rax
	.section	.rodata
	.align 4
	.align 4
.L233:
	.long	.L244-.L233
	.long	.L243-.L233
	.long	.L242-.L233
	.long	.L271-.L233
	.long	.L271-.L233
	.long	.L271-.L233
	.long	.L271-.L233
	.long	.L241-.L233
	.long	.L271-.L233
	.long	.L240-.L233
	.long	.L239-.L233
	.long	.L271-.L233
	.long	.L271-.L233
	.long	.L271-.L233
	.long	.L271-.L233
	.long	.L238-.L233
	.long	.L237-.L233
	.long	.L271-.L233
	.long	.L236-.L233
	.long	.L271-.L233
	.long	.L271-.L233
	.long	.L271-.L233
	.long	.L271-.L233
	.long	.L235-.L233
	.long	.L234-.L233
	.long	.L232-.L233
	.text
.L244:
	movl	-52(%rbp), %eax
	subl	$1, %eax
	movl	%eax, -32(%rbp)
	jmp	.L245
.L246:
	movq	-24(%rbp), %rax
	movzbl	(%rax), %edx
	movq	-16(%rbp), %rax
	movb	%dl, (%rax)
	movq	-16(%rbp), %rax
	addq	$1, %rax
	movb	$-1, (%rax)
	subl	$1, -32(%rbp)
	addq	$1, -24(%rbp)
	addq	$2, -16(%rbp)
.L245:
	cmpl	$0, -32(%rbp)
	jns	.L246
	jmp	.L247
.L243:
	movl	-52(%rbp), %eax
	subl	$1, %eax
	movl	%eax, -32(%rbp)
	jmp	.L248
.L249:
	movq	-16(%rbp), %rax
	leaq	2(%rax), %rdx
	movq	-24(%rbp), %rax
	movzbl	(%rax), %eax
	movb	%al, (%rdx)
	movq	-16(%rbp), %rax
	addq	$1, %rax
	movzbl	(%rdx), %edx
	movb	%dl, (%rax)
	movzbl	(%rax), %edx
	movq	-16(%rbp), %rax
	movb	%dl, (%rax)
	subl	$1, -32(%rbp)
	addq	$1, -24(%rbp)
	addq	$3, -16(%rbp)
.L248:
	cmpl	$0, -32(%rbp)
	jns	.L249
	jmp	.L247
.L242:
	movl	-52(%rbp), %eax
	subl	$1, %eax
	movl	%eax, -32(%rbp)
	jmp	.L250
.L251:
	movq	-16(%rbp), %rax
	leaq	2(%rax), %rdx
	movq	-24(%rbp), %rax
	movzbl	(%rax), %eax
	movb	%al, (%rdx)
	movq	-16(%rbp), %rax
	addq	$1, %rax
	movzbl	(%rdx), %edx
	movb	%dl, (%rax)
	movzbl	(%rax), %edx
	movq	-16(%rbp), %rax
	movb	%dl, (%rax)
	movq	-16(%rbp), %rax
	addq	$3, %rax
	movb	$-1, (%rax)
	subl	$1, -32(%rbp)
	addq	$1, -24(%rbp)
	addq	$4, -16(%rbp)
.L250:
	cmpl	$0, -32(%rbp)
	jns	.L251
	jmp	.L247
.L241:
	movl	-52(%rbp), %eax
	subl	$1, %eax
	movl	%eax, -32(%rbp)
	jmp	.L252
.L253:
	movq	-24(%rbp), %rax
	movzbl	(%rax), %edx
	movq	-16(%rbp), %rax
	movb	%dl, (%rax)
	subl	$1, -32(%rbp)
	addq	$2, -24(%rbp)
	addq	$1, -16(%rbp)
.L252:
	cmpl	$0, -32(%rbp)
	jns	.L253
	jmp	.L247
.L240:
	movl	-52(%rbp), %eax
	subl	$1, %eax
	movl	%eax, -32(%rbp)
	jmp	.L254
.L255:
	movq	-16(%rbp), %rax
	leaq	2(%rax), %rdx
	movq	-24(%rbp), %rax
	movzbl	(%rax), %eax
	movb	%al, (%rdx)
	movq	-16(%rbp), %rax
	addq	$1, %rax
	movzbl	(%rdx), %edx
	movb	%dl, (%rax)
	movzbl	(%rax), %edx
	movq	-16(%rbp), %rax
	movb	%dl, (%rax)
	subl	$1, -32(%rbp)
	addq	$2, -24(%rbp)
	addq	$3, -16(%rbp)
.L254:
	cmpl	$0, -32(%rbp)
	jns	.L255
	jmp	.L247
.L239:
	movl	-52(%rbp), %eax
	subl	$1, %eax
	movl	%eax, -32(%rbp)
	jmp	.L256
.L257:
	movq	-16(%rbp), %rax
	leaq	2(%rax), %rdx
	movq	-24(%rbp), %rax
	movzbl	(%rax), %eax
	movb	%al, (%rdx)
	movq	-16(%rbp), %rax
	addq	$1, %rax
	movzbl	(%rdx), %edx
	movb	%dl, (%rax)
	movzbl	(%rax), %edx
	movq	-16(%rbp), %rax
	movb	%dl, (%rax)
	movq	-16(%rbp), %rax
	leaq	3(%rax), %rdx
	movq	-24(%rbp), %rax
	movzbl	1(%rax), %eax
	movb	%al, (%rdx)
	subl	$1, -32(%rbp)
	addq	$2, -24(%rbp)
	addq	$4, -16(%rbp)
.L256:
	cmpl	$0, -32(%rbp)
	jns	.L257
	jmp	.L247
.L236:
	movl	-52(%rbp), %eax
	subl	$1, %eax
	movl	%eax, -32(%rbp)
	jmp	.L258
.L259:
	movq	-24(%rbp), %rax
	movzbl	(%rax), %edx
	movq	-16(%rbp), %rax
	movb	%dl, (%rax)
	movq	-16(%rbp), %rax
	leaq	1(%rax), %rdx
	movq	-24(%rbp), %rax
	movzbl	1(%rax), %eax
	movb	%al, (%rdx)
	movq	-16(%rbp), %rax
	leaq	2(%rax), %rdx
	movq	-24(%rbp), %rax
	movzbl	2(%rax), %eax
	movb	%al, (%rdx)
	movq	-16(%rbp), %rax
	addq	$3, %rax
	movb	$-1, (%rax)
	subl	$1, -32(%rbp)
	addq	$3, -24(%rbp)
	addq	$4, -16(%rbp)
.L258:
	cmpl	$0, -32(%rbp)
	jns	.L259
	jmp	.L247
.L238:
	movl	-52(%rbp), %eax
	subl	$1, %eax
	movl	%eax, -32(%rbp)
	jmp	.L260
.L261:
	movq	-24(%rbp), %rax
	addq	$2, %rax
	movzbl	(%rax), %eax
	movzbl	%al, %edx
	movq	-24(%rbp), %rax
	addq	$1, %rax
	movzbl	(%rax), %eax
	movzbl	%al, %ecx
	movq	-24(%rbp), %rax
	movzbl	(%rax), %eax
	movzbl	%al, %eax
	movl	%ecx, %esi
	movl	%eax, %edi
	call	stbi__compute_y
	movq	-16(%rbp), %rdx
	movb	%al, (%rdx)
	subl	$1, -32(%rbp)
	addq	$3, -24(%rbp)
	addq	$1, -16(%rbp)
.L260:
	cmpl	$0, -32(%rbp)
	jns	.L261
	jmp	.L247
.L237:
	movl	-52(%rbp), %eax
	subl	$1, %eax
	movl	%eax, -32(%rbp)
	jmp	.L262
.L263:
	movq	-24(%rbp), %rax
	addq	$2, %rax
	movzbl	(%rax), %eax
	movzbl	%al, %edx
	movq	-24(%rbp), %rax
	addq	$1, %rax
	movzbl	(%rax), %eax
	movzbl	%al, %ecx
	movq	-24(%rbp), %rax
	movzbl	(%rax), %eax
	movzbl	%al, %eax
	movl	%ecx, %esi
	movl	%eax, %edi
	call	stbi__compute_y
	movq	-16(%rbp), %rdx
	movb	%al, (%rdx)
	movq	-16(%rbp), %rax
	addq	$1, %rax
	movb	$-1, (%rax)
	subl	$1, -32(%rbp)
	addq	$3, -24(%rbp)
	addq	$2, -16(%rbp)
.L262:
	cmpl	$0, -32(%rbp)
	jns	.L263
	jmp	.L247
.L235:
	movl	-52(%rbp), %eax
	subl	$1, %eax
	movl	%eax, -32(%rbp)
	jmp	.L264
.L265:
	movq	-24(%rbp), %rax
	addq	$2, %rax
	movzbl	(%rax), %eax
	movzbl	%al, %edx
	movq	-24(%rbp), %rax
	addq	$1, %rax
	movzbl	(%rax), %eax
	movzbl	%al, %ecx
	movq	-24(%rbp), %rax
	movzbl	(%rax), %eax
	movzbl	%al, %eax
	movl	%ecx, %esi
	movl	%eax, %edi
	call	stbi__compute_y
	movq	-16(%rbp), %rdx
	movb	%al, (%rdx)
	subl	$1, -32(%rbp)
	addq	$4, -24(%rbp)
	addq	$1, -16(%rbp)
.L264:
	cmpl	$0, -32(%rbp)
	jns	.L265
	jmp	.L247
.L234:
	movl	-52(%rbp), %eax
	subl	$1, %eax
	movl	%eax, -32(%rbp)
	jmp	.L266
.L267:
	movq	-24(%rbp), %rax
	addq	$2, %rax
	movzbl	(%rax), %eax
	movzbl	%al, %edx
	movq	-24(%rbp), %rax
	addq	$1, %rax
	movzbl	(%rax), %eax
	movzbl	%al, %ecx
	movq	-24(%rbp), %rax
	movzbl	(%rax), %eax
	movzbl	%al, %eax
	movl	%ecx, %esi
	movl	%eax, %edi
	call	stbi__compute_y
	movq	-16(%rbp), %rdx
	movb	%al, (%rdx)
	movq	-16(%rbp), %rax
	leaq	1(%rax), %rdx
	movq	-24(%rbp), %rax
	movzbl	3(%rax), %eax
	movb	%al, (%rdx)
	subl	$1, -32(%rbp)
	addq	$4, -24(%rbp)
	addq	$2, -16(%rbp)
.L266:
	cmpl	$0, -32(%rbp)
	jns	.L267
	jmp	.L247
.L232:
	movl	-52(%rbp), %eax
	subl	$1, %eax
	movl	%eax, -32(%rbp)
	jmp	.L268
.L269:
	movq	-24(%rbp), %rax
	movzbl	(%rax), %edx
	movq	-16(%rbp), %rax
	movb	%dl, (%rax)
	movq	-16(%rbp), %rax
	leaq	1(%rax), %rdx
	movq	-24(%rbp), %rax
	movzbl	1(%rax), %eax
	movb	%al, (%rdx)
	movq	-16(%rbp), %rax
	leaq	2(%rax), %rdx
	movq	-24(%rbp), %rax
	movzbl	2(%rax), %eax
	movb	%al, (%rdx)
	subl	$1, -32(%rbp)
	addq	$4, -24(%rbp)
	addq	$3, -16(%rbp)
.L268:
	cmpl	$0, -32(%rbp)
	jns	.L269
	jmp	.L247
.L271:
	leaq	__PRETTY_FUNCTION__.6934(%rip), %rcx
	movl	$1770, %edx
	leaq	.LC2(%rip), %rsi
	leaq	.LC8(%rip), %rdi
	call	__assert_fail@PLT
.L247:
	addl	$1, -28(%rbp)
.L230:
	movl	-56(%rbp), %eax
	cmpl	%eax, -28(%rbp)
	jl	.L270
	movq	-40(%rbp), %rax
	movq	%rax, %rdi
	call	free@PLT
	movq	-8(%rbp), %rax
.L226:
	leave
	.cfi_def_cfa 7, 8
	ret
	.cfi_endproc
.LFE568:
	.size	stbi__convert_format, .-stbi__convert_format
	.type	stbi__compute_y_16, @function
stbi__compute_y_16:
.LFB569:
	.cfi_startproc
	endbr64
	pushq	%rbp
	.cfi_def_cfa_offset 16
	.cfi_offset 6, -16
	movq	%rsp, %rbp
	.cfi_def_cfa_register 6
	movl	%edi, -4(%rbp)
	movl	%esi, -8(%rbp)
	movl	%edx, -12(%rbp)
	movl	-4(%rbp), %eax
	imull	$77, %eax, %edx
	movl	-8(%rbp), %eax
	imull	$150, %eax, %eax
	addl	%eax, %edx
	movl	-12(%rbp), %eax
	imull	$29, %eax, %eax
	addl	%edx, %eax
	sarl	$8, %eax
	popq	%rbp
	.cfi_def_cfa 7, 8
	ret
	.cfi_endproc
.LFE569:
	.size	stbi__compute_y_16, .-stbi__compute_y_16
	.type	stbi__convert_format16, @function
stbi__convert_format16:
.LFB570:
	.cfi_startproc
	endbr64
	pushq	%rbp
	.cfi_def_cfa_offset 16
	.cfi_offset 6, -16
	movq	%rsp, %rbp
	.cfi_def_cfa_register 6
	subq	$64, %rsp
	movq	%rdi, -40(%rbp)
	movl	%esi, -44(%rbp)
	movl	%edx, -48(%rbp)
	movl	%ecx, -52(%rbp)
	movl	%r8d, -56(%rbp)
	movl	-48(%rbp), %eax
	cmpl	-44(%rbp), %eax
	jne	.L276
	movq	-40(%rbp), %rax
	jmp	.L277
.L276:
	cmpl	$0, -48(%rbp)
	jle	.L278
	cmpl	$4, -48(%rbp)
	jle	.L323
.L278:
	leaq	__PRETTY_FUNCTION__.7005(%rip), %rcx
	movl	$1798, %edx
	leaq	.LC2(%rip), %rsi
	leaq	.LC7(%rip), %rdi
	call	__assert_fail@PLT
.L323:
	movl	-48(%rbp), %eax
	imull	-52(%rbp), %eax
	imull	-56(%rbp), %eax
	addl	%eax, %eax
	movl	%eax, %eax
	movq	%rax, %rdi
	call	stbi__malloc
	movq	%rax, -8(%rbp)
	cmpq	$0, -8(%rbp)
	jne	.L280
	movq	-40(%rbp), %rax
	movq	%rax, %rdi
	call	free@PLT
	leaq	.LC1(%rip), %rdi
	call	stbi__err
	movl	$0, %eax
	jmp	.L277
.L280:
	movl	$0, -28(%rbp)
	jmp	.L281
.L321:
	movl	-28(%rbp), %eax
	imull	-52(%rbp), %eax
	movl	%eax, %edx
	movl	-44(%rbp), %eax
	imull	%edx, %eax
	movl	%eax, %eax
	leaq	(%rax,%rax), %rdx
	movq	-40(%rbp), %rax
	addq	%rdx, %rax
	movq	%rax, -24(%rbp)
	movl	-28(%rbp), %eax
	imull	-52(%rbp), %eax
	movl	%eax, %edx
	movl	-48(%rbp), %eax
	imull	%edx, %eax
	movl	%eax, %eax
	leaq	(%rax,%rax), %rdx
	movq	-8(%rbp), %rax
	addq	%rdx, %rax
	movq	%rax, -16(%rbp)
	movl	-44(%rbp), %eax
	leal	0(,%rax,8), %edx
	movl	-48(%rbp), %eax
	addl	%edx, %eax
	subl	$10, %eax
	cmpl	$25, %eax
	ja	.L322
	movl	%eax, %eax
	leaq	0(,%rax,4), %rdx
	leaq	.L284(%rip), %rax
	movl	(%rdx,%rax), %eax
	cltq
	leaq	.L284(%rip), %rdx
	addq	%rdx, %rax
	notrack jmp	*%rax
	.section	.rodata
	.align 4
	.align 4
.L284:
	.long	.L295-.L284
	.long	.L294-.L284
	.long	.L293-.L284
	.long	.L322-.L284
	.long	.L322-.L284
	.long	.L322-.L284
	.long	.L322-.L284
	.long	.L292-.L284
	.long	.L322-.L284
	.long	.L291-.L284
	.long	.L290-.L284
	.long	.L322-.L284
	.long	.L322-.L284
	.long	.L322-.L284
	.long	.L322-.L284
	.long	.L289-.L284
	.long	.L288-.L284
	.long	.L322-.L284
	.long	.L287-.L284
	.long	.L322-.L284
	.long	.L322-.L284
	.long	.L322-.L284
	.long	.L322-.L284
	.long	.L286-.L284
	.long	.L285-.L284
	.long	.L283-.L284
	.text
.L295:
	movl	-52(%rbp), %eax
	subl	$1, %eax
	movl	%eax, -32(%rbp)
	jmp	.L296
.L297:
	movq	-24(%rbp), %rax
	movzwl	(%rax), %edx
	movq	-16(%rbp), %rax
	movw	%dx, (%rax)
	movq	-16(%rbp), %rax
	addq	$2, %rax
	movw	$-1, (%rax)
	subl	$1, -32(%rbp)
	addq	$2, -24(%rbp)
	addq	$4, -16(%rbp)
.L296:
	cmpl	$0, -32(%rbp)
	jns	.L297
	jmp	.L298
.L294:
	movl	-52(%rbp), %eax
	subl	$1, %eax
	movl	%eax, -32(%rbp)
	jmp	.L299
.L300:
	movq	-16(%rbp), %rax
	leaq	4(%rax), %rdx
	movq	-24(%rbp), %rax
	movzwl	(%rax), %eax
	movw	%ax, (%rdx)
	movq	-16(%rbp), %rax
	addq	$2, %rax
	movzwl	(%rdx), %edx
	movw	%dx, (%rax)
	movzwl	(%rax), %edx
	movq	-16(%rbp), %rax
	movw	%dx, (%rax)
	subl	$1, -32(%rbp)
	addq	$2, -24(%rbp)
	addq	$6, -16(%rbp)
.L299:
	cmpl	$0, -32(%rbp)
	jns	.L300
	jmp	.L298
.L293:
	movl	-52(%rbp), %eax
	subl	$1, %eax
	movl	%eax, -32(%rbp)
	jmp	.L301
.L302:
	movq	-16(%rbp), %rax
	leaq	4(%rax), %rdx
	movq	-24(%rbp), %rax
	movzwl	(%rax), %eax
	movw	%ax, (%rdx)
	movq	-16(%rbp), %rax
	addq	$2, %rax
	movzwl	(%rdx), %edx
	movw	%dx, (%rax)
	movzwl	(%rax), %edx
	movq	-16(%rbp), %rax
	movw	%dx, (%rax)
	movq	-16(%rbp), %rax
	addq	$6, %rax
	movw	$-1, (%rax)
	subl	$1, -32(%rbp)
	addq	$2, -24(%rbp)
	addq	$8, -16(%rbp)
.L301:
	cmpl	$0, -32(%rbp)
	jns	.L302
	jmp	.L298
.L292:
	movl	-52(%rbp), %eax
	subl	$1, %eax
	movl	%eax, -32(%rbp)
	jmp	.L303
.L304:
	movq	-24(%rbp), %rax
	movzwl	(%rax), %edx
	movq	-16(%rbp), %rax
	movw	%dx, (%rax)
	subl	$1, -32(%rbp)
	addq	$4, -24(%rbp)
	addq	$2, -16(%rbp)
.L303:
	cmpl	$0, -32(%rbp)
	jns	.L304
	jmp	.L298
.L291:
	movl	-52(%rbp), %eax
	subl	$1, %eax
	movl	%eax, -32(%rbp)
	jmp	.L305
.L306:
	movq	-16(%rbp), %rax
	leaq	4(%rax), %rdx
	movq	-24(%rbp), %rax
	movzwl	(%rax), %eax
	movw	%ax, (%rdx)
	movq	-16(%rbp), %rax
	addq	$2, %rax
	movzwl	(%rdx), %edx
	movw	%dx, (%rax)
	movzwl	(%rax), %edx
	movq	-16(%rbp), %rax
	movw	%dx, (%rax)
	subl	$1, -32(%rbp)
	addq	$4, -24(%rbp)
	addq	$6, -16(%rbp)
.L305:
	cmpl	$0, -32(%rbp)
	jns	.L306
	jmp	.L298
.L290:
	movl	-52(%rbp), %eax
	subl	$1, %eax
	movl	%eax, -32(%rbp)
	jmp	.L307
.L308:
	movq	-16(%rbp), %rax
	leaq	4(%rax), %rdx
	movq	-24(%rbp), %rax
	movzwl	(%rax), %eax
	movw	%ax, (%rdx)
	movq	-16(%rbp), %rax
	addq	$2, %rax
	movzwl	(%rdx), %edx
	movw	%dx, (%rax)
	movzwl	(%rax), %edx
	movq	-16(%rbp), %rax
	movw	%dx, (%rax)
	movq	-16(%rbp), %rax
	leaq	6(%rax), %rdx
	movq	-24(%rbp), %rax
	movzwl	2(%rax), %eax
	movw	%ax, (%rdx)
	subl	$1, -32(%rbp)
	addq	$4, -24(%rbp)
	addq	$8, -16(%rbp)
.L307:
	cmpl	$0, -32(%rbp)
	jns	.L308
	jmp	.L298
.L287:
	movl	-52(%rbp), %eax
	subl	$1, %eax
	movl	%eax, -32(%rbp)
	jmp	.L309
.L310:
	movq	-24(%rbp), %rax
	movzwl	(%rax), %edx
	movq	-16(%rbp), %rax
	movw	%dx, (%rax)
	movq	-16(%rbp), %rax
	leaq	2(%rax), %rdx
	movq	-24(%rbp), %rax
	movzwl	2(%rax), %eax
	movw	%ax, (%rdx)
	movq	-16(%rbp), %rax
	leaq	4(%rax), %rdx
	movq	-24(%rbp), %rax
	movzwl	4(%rax), %eax
	movw	%ax, (%rdx)
	movq	-16(%rbp), %rax
	addq	$6, %rax
	movw	$-1, (%rax)
	subl	$1, -32(%rbp)
	addq	$6, -24(%rbp)
	addq	$8, -16(%rbp)
.L309:
	cmpl	$0, -32(%rbp)
	jns	.L310
	jmp	.L298
.L289:
	movl	-52(%rbp), %eax
	subl	$1, %eax
	movl	%eax, -32(%rbp)
	jmp	.L311
.L312:
	movq	-24(%rbp), %rax
	addq	$4, %rax
	movzwl	(%rax), %eax
	movzwl	%ax, %edx
	movq	-24(%rbp), %rax
	addq	$2, %rax
	movzwl	(%rax), %eax
	movzwl	%ax, %ecx
	movq	-24(%rbp), %rax
	movzwl	(%rax), %eax
	movzwl	%ax, %eax
	movl	%ecx, %esi
	movl	%eax, %edi
	call	stbi__compute_y_16
	movq	-16(%rbp), %rdx
	movw	%ax, (%rdx)
	subl	$1, -32(%rbp)
	addq	$6, -24(%rbp)
	addq	$2, -16(%rbp)
.L311:
	cmpl	$0, -32(%rbp)
	jns	.L312
	jmp	.L298
.L288:
	movl	-52(%rbp), %eax
	subl	$1, %eax
	movl	%eax, -32(%rbp)
	jmp	.L313
.L314:
	movq	-24(%rbp), %rax
	addq	$4, %rax
	movzwl	(%rax), %eax
	movzwl	%ax, %edx
	movq	-24(%rbp), %rax
	addq	$2, %rax
	movzwl	(%rax), %eax
	movzwl	%ax, %ecx
	movq	-24(%rbp), %rax
	movzwl	(%rax), %eax
	movzwl	%ax, %eax
	movl	%ecx, %esi
	movl	%eax, %edi
	call	stbi__compute_y_16
	movq	-16(%rbp), %rdx
	movw	%ax, (%rdx)
	movq	-16(%rbp), %rax
	addq	$2, %rax
	movw	$-1, (%rax)
	subl	$1, -32(%rbp)
	addq	$6, -24(%rbp)
	addq	$4, -16(%rbp)
.L313:
	cmpl	$0, -32(%rbp)
	jns	.L314
	jmp	.L298
.L286:
	movl	-52(%rbp), %eax
	subl	$1, %eax
	movl	%eax, -32(%rbp)
	jmp	.L315
.L316:
	movq	-24(%rbp), %rax
	addq	$4, %rax
	movzwl	(%rax), %eax
	movzwl	%ax, %edx
	movq	-24(%rbp), %rax
	addq	$2, %rax
	movzwl	(%rax), %eax
	movzwl	%ax, %ecx
	movq	-24(%rbp), %rax
	movzwl	(%rax), %eax
	movzwl	%ax, %eax
	movl	%ecx, %esi
	movl	%eax, %edi
	call	stbi__compute_y_16
	movq	-16(%rbp), %rdx
	movw	%ax, (%rdx)
	subl	$1, -32(%rbp)
	addq	$8, -24(%rbp)
	addq	$2, -16(%rbp)
.L315:
	cmpl	$0, -32(%rbp)
	jns	.L316
	jmp	.L298
.L285:
	movl	-52(%rbp), %eax
	subl	$1, %eax
	movl	%eax, -32(%rbp)
	jmp	.L317
.L318:
	movq	-24(%rbp), %rax
	addq	$4, %rax
	movzwl	(%rax), %eax
	movzwl	%ax, %edx
	movq	-24(%rbp), %rax
	addq	$2, %rax
	movzwl	(%rax), %eax
	movzwl	%ax, %ecx
	movq	-24(%rbp), %rax
	movzwl	(%rax), %eax
	movzwl	%ax, %eax
	movl	%ecx, %esi
	movl	%eax, %edi
	call	stbi__compute_y_16
	movq	-16(%rbp), %rdx
	movw	%ax, (%rdx)
	movq	-16(%rbp), %rax
	leaq	2(%rax), %rdx
	movq	-24(%rbp), %rax
	movzwl	6(%rax), %eax
	movw	%ax, (%rdx)
	subl	$1, -32(%rbp)
	addq	$8, -24(%rbp)
	addq	$4, -16(%rbp)
.L317:
	cmpl	$0, -32(%rbp)
	jns	.L318
	jmp	.L298
.L283:
	movl	-52(%rbp), %eax
	subl	$1, %eax
	movl	%eax, -32(%rbp)
	jmp	.L319
.L320:
	movq	-24(%rbp), %rax
	movzwl	(%rax), %edx
	movq	-16(%rbp), %rax
	movw	%dx, (%rax)
	movq	-16(%rbp), %rax
	leaq	2(%rax), %rdx
	movq	-24(%rbp), %rax
	movzwl	2(%rax), %eax
	movw	%ax, (%rdx)
	movq	-16(%rbp), %rax
	leaq	4(%rax), %rdx
	movq	-24(%rbp), %rax
	movzwl	4(%rax), %eax
	movw	%ax, (%rdx)
	subl	$1, -32(%rbp)
	addq	$8, -24(%rbp)
	addq	$6, -16(%rbp)
.L319:
	cmpl	$0, -32(%rbp)
	jns	.L320
	jmp	.L298
.L322:
	leaq	__PRETTY_FUNCTION__.7005(%rip), %rcx
	movl	$1827, %edx
	leaq	.LC2(%rip), %rsi
	leaq	.LC8(%rip), %rdi
	call	__assert_fail@PLT
.L298:
	addl	$1, -28(%rbp)
.L281:
	movl	-56(%rbp), %eax
	cmpl	%eax, -28(%rbp)
	jl	.L321
	movq	-40(%rbp), %rax
	movq	%rax, %rdi
	call	free@PLT
	movq	-8(%rbp), %rax
.L277:
	leave
	.cfi_def_cfa 7, 8
	ret
	.cfi_endproc
.LFE570:
	.size	stbi__convert_format16, .-stbi__convert_format16
	.type	stbi__ldr_to_hdr, @function
stbi__ldr_to_hdr:
.LFB571:
	.cfi_startproc
	endbr64
	pushq	%rbp
	.cfi_def_cfa_offset 16
	.cfi_offset 6, -16
	movq	%rsp, %rbp
	.cfi_def_cfa_register 6
	subq	$64, %rsp
	movq	%rdi, -40(%rbp)
	movl	%esi, -44(%rbp)
	movl	%edx, -48(%rbp)
	movl	%ecx, -52(%rbp)
	cmpq	$0, -40(%rbp)
	jne	.L325
	movl	$0, %eax
	jmp	.L326
.L325:
	movl	-52(%rbp), %edx
	movl	-48(%rbp), %esi
	movl	-44(%rbp), %eax
	movl	$0, %r8d
	movl	$4, %ecx
	movl	%eax, %edi
	call	stbi__malloc_mad4
	movq	%rax, -8(%rbp)
	cmpq	$0, -8(%rbp)
	jne	.L327
	movq	-40(%rbp), %rax
	movq	%rax, %rdi
	call	free@PLT
	leaq	.LC1(%rip), %rdi
	call	stbi__err
	movl	$0, %eax
	jmp	.L326
.L327:
	movl	-52(%rbp), %eax
	andl	$1, %eax
	testl	%eax, %eax
	je	.L328
	movl	-52(%rbp), %eax
	movl	%eax, -12(%rbp)
	jmp	.L329
.L328:
	movl	-52(%rbp), %eax
	subl	$1, %eax
	movl	%eax, -12(%rbp)
.L329:
	movl	$0, -20(%rbp)
	jmp	.L330
.L333:
	movl	$0, -16(%rbp)
	jmp	.L331
.L332:
	movss	stbi__l2h_gamma(%rip), %xmm0
	cvtss2sd	%xmm0, %xmm2
	movl	-20(%rbp), %eax
	imull	-52(%rbp), %eax
	movl	%eax, %edx
	movl	-16(%rbp), %eax
	addl	%edx, %eax
	movslq	%eax, %rdx
	movq	-40(%rbp), %rax
	addq	%rdx, %rax
	movzbl	(%rax), %eax
	movzbl	%al, %eax
	cvtsi2ssl	%eax, %xmm0
	movss	.LC9(%rip), %xmm1
	divss	%xmm1, %xmm0
	cvtss2sd	%xmm0, %xmm0
	movapd	%xmm2, %xmm1
	call	pow@PLT
	movss	stbi__l2h_scale(%rip), %xmm1
	cvtss2sd	%xmm1, %xmm1
	mulsd	%xmm1, %xmm0
	movl	-20(%rbp), %eax
	imull	-52(%rbp), %eax
	movl	%eax, %edx
	movl	-16(%rbp), %eax
	addl	%edx, %eax
	cltq
	leaq	0(,%rax,4), %rdx
	movq	-8(%rbp), %rax
	addq	%rdx, %rax
	cvtsd2ss	%xmm0, %xmm0
	movss	%xmm0, (%rax)
	addl	$1, -16(%rbp)
.L331:
	movl	-16(%rbp), %eax
	cmpl	-12(%rbp), %eax
	jl	.L332
	addl	$1, -20(%rbp)
.L330:
	movl	-44(%rbp), %eax
	imull	-48(%rbp), %eax
	cmpl	%eax, -20(%rbp)
	jl	.L333
	movl	-12(%rbp), %eax
	cmpl	-52(%rbp), %eax
	jge	.L334
	movl	$0, -20(%rbp)
	jmp	.L335
.L336:
	movl	-20(%rbp), %eax
	imull	-52(%rbp), %eax
	movl	%eax, %edx
	movl	-12(%rbp), %eax
	addl	%edx, %eax
	movslq	%eax, %rdx
	movq	-40(%rbp), %rax
	addq	%rdx, %rax
	movzbl	(%rax), %eax
	movzbl	%al, %eax
	cvtsi2ssl	%eax, %xmm0
	movl	-20(%rbp), %eax
	imull	-52(%rbp), %eax
	movl	%eax, %edx
	movl	-12(%rbp), %eax
	addl	%edx, %eax
	cltq
	leaq	0(,%rax,4), %rdx
	movq	-8(%rbp), %rax
	addq	%rdx, %rax
	movss	.LC9(%rip), %xmm1
	divss	%xmm1, %xmm0
	movss	%xmm0, (%rax)
	addl	$1, -20(%rbp)
.L335:
	movl	-44(%rbp), %eax
	imull	-48(%rbp), %eax
	cmpl	%eax, -20(%rbp)
	jl	.L336
.L334:
	movq	-40(%rbp), %rax
	movq	%rax, %rdi
	call	free@PLT
	movq	-8(%rbp), %rax
.L326:
	leave
	.cfi_def_cfa 7, 8
	ret
	.cfi_endproc
.LFE571:
	.size	stbi__ldr_to_hdr, .-stbi__ldr_to_hdr
	.type	stbi__hdr_to_ldr, @function
stbi__hdr_to_ldr:
.LFB572:
	.cfi_startproc
	endbr64
	pushq	%rbp
	.cfi_def_cfa_offset 16
	.cfi_offset 6, -16
	movq	%rsp, %rbp
	.cfi_def_cfa_register 6
	subq	$64, %rsp
	movq	%rdi, -40(%rbp)
	movl	%esi, -44(%rbp)
	movl	%edx, -48(%rbp)
	movl	%ecx, -52(%rbp)
	cmpq	$0, -40(%rbp)
	jne	.L338
	movl	$0, %eax
	jmp	.L339
.L338:
	movl	-52(%rbp), %edx
	movl	-48(%rbp), %esi
	movl	-44(%rbp), %eax
	movl	$0, %ecx
	movl	%eax, %edi
	call	stbi__malloc_mad3
	movq	%rax, -8(%rbp)
	cmpq	$0, -8(%rbp)
	jne	.L340
	movq	-40(%rbp), %rax
	movq	%rax, %rdi
	call	free@PLT
	leaq	.LC1(%rip), %rdi
	call	stbi__err
	movl	$0, %eax
	jmp	.L339
.L340:
	movl	-52(%rbp), %eax
	andl	$1, %eax
	testl	%eax, %eax
	je	.L341
	movl	-52(%rbp), %eax
	movl	%eax, -20(%rbp)
	jmp	.L342
.L341:
	movl	-52(%rbp), %eax
	subl	$1, %eax
	movl	%eax, -20(%rbp)
.L342:
	movl	$0, -28(%rbp)
	jmp	.L343
.L355:
	movl	$0, -24(%rbp)
	jmp	.L344
.L349:
	movss	stbi__h2l_gamma_i(%rip), %xmm0
	cvtss2sd	%xmm0, %xmm2
	movl	-28(%rbp), %eax
	imull	-52(%rbp), %eax
	movl	%eax, %edx
	movl	-24(%rbp), %eax
	addl	%edx, %eax
	cltq
	leaq	0(,%rax,4), %rdx
	movq	-40(%rbp), %rax
	addq	%rdx, %rax
	movss	(%rax), %xmm1
	movss	stbi__h2l_scale_i(%rip), %xmm0
	mulss	%xmm1, %xmm0
	cvtss2sd	%xmm0, %xmm0
	movapd	%xmm2, %xmm1
	call	pow@PLT
	cvtsd2ss	%xmm0, %xmm1
	movss	.LC9(%rip), %xmm0
	mulss	%xmm0, %xmm1
	movss	.LC10(%rip), %xmm0
	addss	%xmm1, %xmm0
	movss	%xmm0, -16(%rbp)
	pxor	%xmm0, %xmm0
	comiss	-16(%rbp), %xmm0
	jbe	.L345
	pxor	%xmm0, %xmm0
	movss	%xmm0, -16(%rbp)
.L345:
	movss	-16(%rbp), %xmm0
	comiss	.LC9(%rip), %xmm0
	jbe	.L347
	movss	.LC9(%rip), %xmm0
	movss	%xmm0, -16(%rbp)
.L347:
	movss	-16(%rbp), %xmm0
	cvttss2sil	%xmm0, %ecx
	movl	-28(%rbp), %eax
	imull	-52(%rbp), %eax
	movl	%eax, %edx
	movl	-24(%rbp), %eax
	addl	%edx, %eax
	movslq	%eax, %rdx
	movq	-8(%rbp), %rax
	addq	%rdx, %rax
	movl	%ecx, %edx
	movb	%dl, (%rax)
	addl	$1, -24(%rbp)
.L344:
	movl	-24(%rbp), %eax
	cmpl	-20(%rbp), %eax
	jl	.L349
	movl	-24(%rbp), %eax
	cmpl	-52(%rbp), %eax
	jge	.L350
	movl	-28(%rbp), %eax
	imull	-52(%rbp), %eax
	movl	%eax, %edx
	movl	-24(%rbp), %eax
	addl	%edx, %eax
	cltq
	leaq	0(,%rax,4), %rdx
	movq	-40(%rbp), %rax
	addq	%rdx, %rax
	movss	(%rax), %xmm1
	movss	.LC9(%rip), %xmm0
	mulss	%xmm0, %xmm1
	movss	.LC10(%rip), %xmm0
	addss	%xmm1, %xmm0
	movss	%xmm0, -12(%rbp)
	pxor	%xmm0, %xmm0
	comiss	-12(%rbp), %xmm0
	jbe	.L351
	pxor	%xmm0, %xmm0
	movss	%xmm0, -12(%rbp)
.L351:
	movss	-12(%rbp), %xmm0
	comiss	.LC9(%rip), %xmm0
	jbe	.L353
	movss	.LC9(%rip), %xmm0
	movss	%xmm0, -12(%rbp)
.L353:
	movss	-12(%rbp), %xmm0
	cvttss2sil	%xmm0, %ecx
	movl	-28(%rbp), %eax
	imull	-52(%rbp), %eax
	movl	%eax, %edx
	movl	-24(%rbp), %eax
	addl	%edx, %eax
	movslq	%eax, %rdx
	movq	-8(%rbp), %rax
	addq	%rdx, %rax
	movl	%ecx, %edx
	movb	%dl, (%rax)
.L350:
	addl	$1, -28(%rbp)
.L343:
	movl	-44(%rbp), %eax
	imull	-48(%rbp), %eax
	cmpl	%eax, -28(%rbp)
	jl	.L355
	movq	-40(%rbp), %rax
	movq	%rax, %rdi
	call	free@PLT
	movq	-8(%rbp), %rax
.L339:
	leave
	.cfi_def_cfa 7, 8
	ret
	.cfi_endproc
.LFE572:
	.size	stbi__hdr_to_ldr, .-stbi__hdr_to_ldr
	.section	.rodata
.LC12:
	.string	"bad code lengths"
	.text
	.type	stbi__build_huffman, @function
stbi__build_huffman:
.LFB573:
	.cfi_startproc
	endbr64
	pushq	%rbp
	.cfi_def_cfa_offset 16
	.cfi_offset 6, -16
	movq	%rsp, %rbp
	.cfi_def_cfa_register 6
	subq	$48, %rsp
	movq	%rdi, -40(%rbp)
	movq	%rsi, -48(%rbp)
	movl	$0, -20(%rbp)
	movl	$0, -28(%rbp)
	jmp	.L361
.L364:
	movl	$0, -24(%rbp)
	jmp	.L362
.L363:
	movl	-28(%rbp), %eax
	movl	%eax, %ecx
	movl	-20(%rbp), %eax
	leal	1(%rax), %edx
	movl	%edx, -20(%rbp)
	addl	$1, %ecx
	movq	-40(%rbp), %rdx
	cltq
	movb	%cl, 1280(%rdx,%rax)
	addl	$1, -24(%rbp)
.L362:
	movl	-28(%rbp), %eax
	cltq
	leaq	0(,%rax,4), %rdx
	movq	-48(%rbp), %rax
	addq	%rdx, %rax
	movl	(%rax), %eax
	cmpl	%eax, -24(%rbp)
	jl	.L363
	addl	$1, -28(%rbp)
.L361:
	cmpl	$15, -28(%rbp)
	jle	.L364
	movq	-40(%rbp), %rdx
	movl	-20(%rbp), %eax
	cltq
	movb	$0, 1280(%rdx,%rax)
	movl	$0, -16(%rbp)
	movl	$0, -20(%rbp)
	movl	$1, -24(%rbp)
	jmp	.L365
.L370:
	movl	-20(%rbp), %eax
	subl	-16(%rbp), %eax
	movl	%eax, %ecx
	movq	-40(%rbp), %rax
	movl	-24(%rbp), %edx
	movslq	%edx, %rdx
	addq	$400, %rdx
	movl	%ecx, 12(%rax,%rdx,4)
	movq	-40(%rbp), %rdx
	movl	-20(%rbp), %eax
	cltq
	movzbl	1280(%rdx,%rax), %eax
	movzbl	%al, %eax
	cmpl	%eax, -24(%rbp)
	jne	.L366
	jmp	.L367
.L368:
	movl	-16(%rbp), %edx
	leal	1(%rdx), %eax
	movl	%eax, -16(%rbp)
	movl	-20(%rbp), %eax
	leal	1(%rax), %ecx
	movl	%ecx, -20(%rbp)
	movl	%edx, %ecx
	movq	-40(%rbp), %rdx
	cltq
	addq	$256, %rax
	movw	%cx, (%rdx,%rax,2)
.L367:
	movq	-40(%rbp), %rdx
	movl	-20(%rbp), %eax
	cltq
	movzbl	1280(%rdx,%rax), %eax
	movzbl	%al, %eax
	cmpl	%eax, -24(%rbp)
	je	.L368
	movl	-16(%rbp), %eax
	leal	-1(%rax), %edx
	movl	-24(%rbp), %eax
	movl	%eax, %ecx
	shrl	%cl, %edx
	movl	%edx, %eax
	testl	%eax, %eax
	je	.L366
	leaq	.LC12(%rip), %rdi
	call	stbi__err
	jmp	.L369
.L366:
	movl	$16, %eax
	subl	-24(%rbp), %eax
	movl	-16(%rbp), %edx
	movl	%eax, %ecx
	sall	%cl, %edx
	movl	%edx, %ecx
	movq	-40(%rbp), %rax
	movl	-24(%rbp), %edx
	movslq	%edx, %rdx
	addq	$384, %rdx
	movl	%ecx, 4(%rax,%rdx,4)
	sall	-16(%rbp)
	addl	$1, -24(%rbp)
.L365:
	cmpl	$16, -24(%rbp)
	jle	.L370
	movq	-40(%rbp), %rax
	movl	-24(%rbp), %edx
	movslq	%edx, %rdx
	addq	$384, %rdx
	movl	$-1, 4(%rax,%rdx,4)
	movq	-40(%rbp), %rax
	movl	$512, %edx
	movl	$255, %esi
	movq	%rax, %rdi
	call	memset@PLT
	movl	$0, -28(%rbp)
	jmp	.L371
.L375:
	movq	-40(%rbp), %rdx
	movl	-28(%rbp), %eax
	cltq
	movzbl	1280(%rdx,%rax), %eax
	movzbl	%al, %eax
	movl	%eax, -12(%rbp)
	cmpl	$9, -12(%rbp)
	jg	.L372
	movq	-40(%rbp), %rax
	movl	-28(%rbp), %edx
	movslq	%edx, %rdx
	addq	$256, %rdx
	movzwl	(%rax,%rdx,2), %eax
	movzwl	%ax, %edx
	movl	$9, %eax
	subl	-12(%rbp), %eax
	movl	%eax, %ecx
	sall	%cl, %edx
	movl	%edx, %eax
	movl	%eax, -8(%rbp)
	movl	$9, %eax
	subl	-12(%rbp), %eax
	movl	$1, %edx
	movl	%eax, %ecx
	sall	%cl, %edx
	movl	%edx, %eax
	movl	%eax, -4(%rbp)
	movl	$0, -24(%rbp)
	jmp	.L373
.L374:
	movl	-8(%rbp), %edx
	movl	-24(%rbp), %eax
	addl	%edx, %eax
	movl	-28(%rbp), %edx
	movl	%edx, %ecx
	movq	-40(%rbp), %rdx
	cltq
	movb	%cl, (%rdx,%rax)
	addl	$1, -24(%rbp)
.L373:
	movl	-24(%rbp), %eax
	cmpl	-4(%rbp), %eax
	jl	.L374
.L372:
	addl	$1, -28(%rbp)
.L371:
	movl	-28(%rbp), %eax
	cmpl	-20(%rbp), %eax
	jl	.L375
	movl	$1, %eax
.L369:
	leave
	.cfi_def_cfa 7, 8
	ret
	.cfi_endproc
.LFE573:
	.size	stbi__build_huffman, .-stbi__build_huffman
	.type	stbi__build_fast_ac, @function
stbi__build_fast_ac:
.LFB574:
	.cfi_startproc
	endbr64
	pushq	%rbp
	.cfi_def_cfa_offset 16
	.cfi_offset 6, -16
	movq	%rsp, %rbp
	.cfi_def_cfa_register 6
	movq	%rdi, -40(%rbp)
	movq	%rsi, -48(%rbp)
	movl	$0, -28(%rbp)
	jmp	.L377
.L380:
	movq	-48(%rbp), %rdx
	movl	-28(%rbp), %eax
	cltq
	movzbl	(%rdx,%rax), %eax
	movb	%al, -29(%rbp)
	movl	-28(%rbp), %eax
	cltq
	leaq	(%rax,%rax), %rdx
	movq	-40(%rbp), %rax
	addq	%rdx, %rax
	movw	$0, (%rax)
	cmpb	$-1, -29(%rbp)
	je	.L378
	movzbl	-29(%rbp), %eax
	movq	-48(%rbp), %rdx
	cltq
	movzbl	1024(%rdx,%rax), %eax
	movzbl	%al, %eax
	movl	%eax, -20(%rbp)
	movl	-20(%rbp), %eax
	sarl	$4, %eax
	andl	$15, %eax
	movl	%eax, -16(%rbp)
	movl	-20(%rbp), %eax
	andl	$15, %eax
	movl	%eax, -12(%rbp)
	movzbl	-29(%rbp), %eax
	movq	-48(%rbp), %rdx
	cltq
	movzbl	1280(%rdx,%rax), %eax
	movzbl	%al, %eax
	movl	%eax, -8(%rbp)
	cmpl	$0, -12(%rbp)
	je	.L378
	movl	-8(%rbp), %edx
	movl	-12(%rbp), %eax
	addl	%edx, %eax
	cmpl	$9, %eax
	jg	.L378
	movl	-8(%rbp), %eax
	movl	-28(%rbp), %edx
	movl	%eax, %ecx
	sall	%cl, %edx
	movl	%edx, %eax
	andl	$511, %eax
	movl	%eax, %edx
	movl	$9, %eax
	subl	-12(%rbp), %eax
	movl	%eax, %ecx
	sarl	%cl, %edx
	movl	%edx, %eax
	movl	%eax, -24(%rbp)
	movl	-12(%rbp), %eax
	subl	$1, %eax
	movl	$1, %edx
	movl	%eax, %ecx
	sall	%cl, %edx
	movl	%edx, %eax
	movl	%eax, -4(%rbp)
	movl	-24(%rbp), %eax
	cmpl	-4(%rbp), %eax
	jge	.L379
	movl	-12(%rbp), %eax
	movl	$-1, %edx
	movl	%eax, %ecx
	sall	%cl, %edx
	movl	-24(%rbp), %eax
	addl	%edx, %eax
	addl	$1, %eax
	movl	%eax, -24(%rbp)
.L379:
	cmpl	$-128, -24(%rbp)
	jl	.L378
	cmpl	$127, -24(%rbp)
	jg	.L378
	movl	-24(%rbp), %eax
	sall	$4, %eax
	movl	%eax, %edx
	movl	-16(%rbp), %eax
	addl	%edx, %eax
	sall	$4, %eax
	movl	%eax, %edx
	movl	-8(%rbp), %eax
	movl	%eax, %ecx
	movl	-12(%rbp), %eax
	addl	%ecx, %eax
	addl	%eax, %edx
	movl	-28(%rbp), %eax
	cltq
	leaq	(%rax,%rax), %rcx
	movq	-40(%rbp), %rax
	addq	%rcx, %rax
	movw	%dx, (%rax)
.L378:
	addl	$1, -28(%rbp)
.L377:
	cmpl	$511, -28(%rbp)
	jle	.L380
	nop
	nop
	popq	%rbp
	.cfi_def_cfa 7, 8
	ret
	.cfi_endproc
.LFE574:
	.size	stbi__build_fast_ac, .-stbi__build_fast_ac
	.type	stbi__grow_buffer_unsafe, @function
stbi__grow_buffer_unsafe:
.LFB575:
	.cfi_startproc
	endbr64
	pushq	%rbp
	.cfi_def_cfa_offset 16
	.cfi_offset 6, -16
	movq	%rsp, %rbp
	.cfi_def_cfa_register 6
	subq	$32, %rsp
	movq	%rdi, -24(%rbp)
.L388:
	movq	-24(%rbp), %rax
	movl	18476(%rax), %eax
	testl	%eax, %eax
	jne	.L382
	movq	-24(%rbp), %rax
	movq	(%rax), %rax
	movq	%rax, %rdi
	call	stbi__get8
	movzbl	%al, %eax
	jmp	.L383
.L382:
	movl	$0, %eax
.L383:
	movl	%eax, -4(%rbp)
	cmpl	$255, -4(%rbp)
	jne	.L384
	movq	-24(%rbp), %rax
	movq	(%rax), %rax
	movq	%rax, %rdi
	call	stbi__get8
	movzbl	%al, %eax
	movl	%eax, -8(%rbp)
	jmp	.L385
.L386:
	movq	-24(%rbp), %rax
	movq	(%rax), %rax
	movq	%rax, %rdi
	call	stbi__get8
	movzbl	%al, %eax
	movl	%eax, -8(%rbp)
.L385:
	cmpl	$255, -8(%rbp)
	je	.L386
	cmpl	$0, -8(%rbp)
	je	.L384
	movl	-8(%rbp), %eax
	movl	%eax, %edx
	movq	-24(%rbp), %rax
	movb	%dl, 18472(%rax)
	movq	-24(%rbp), %rax
	movl	$1, 18476(%rax)
	jmp	.L381
.L384:
	movq	-24(%rbp), %rax
	movl	18464(%rax), %edx
	movq	-24(%rbp), %rax
	movl	18468(%rax), %eax
	movl	$24, %ecx
	subl	%eax, %ecx
	movl	%ecx, %eax
	movl	-4(%rbp), %esi
	movl	%eax, %ecx
	sall	%cl, %esi
	movl	%esi, %eax
	orl	%eax, %edx
	movq	-24(%rbp), %rax
	movl	%edx, 18464(%rax)
	movq	-24(%rbp), %rax
	movl	18468(%rax), %eax
	leal	8(%rax), %edx
	movq	-24(%rbp), %rax
	movl	%edx, 18468(%rax)
	movq	-24(%rbp), %rax
	movl	18468(%rax), %eax
	cmpl	$24, %eax
	jle	.L388
.L381:
	leave
	.cfi_def_cfa 7, 8
	ret
	.cfi_endproc
.LFE575:
	.size	stbi__grow_buffer_unsafe, .-stbi__grow_buffer_unsafe
	.section	.rodata
	.align 32
	.type	stbi__bmask, @object
	.size	stbi__bmask, 68
stbi__bmask:
	.long	0
	.long	1
	.long	3
	.long	7
	.long	15
	.long	31
	.long	63
	.long	127
	.long	255
	.long	511
	.long	1023
	.long	2047
	.long	4095
	.long	8191
	.long	16383
	.long	32767
	.long	65535
	.align 8
.LC13:
	.string	"(((j->code_buffer) >> (32 - h->size[c])) & stbi__bmask[h->size[c]]) == h->code[c]"
	.text
	.type	stbi__jpeg_huff_decode, @function
stbi__jpeg_huff_decode:
.LFB576:
	.cfi_startproc
	endbr64
	pushq	%rbp
	.cfi_def_cfa_offset 16
	.cfi_offset 6, -16
	movq	%rsp, %rbp
	.cfi_def_cfa_register 6
	subq	$32, %rsp
	movq	%rdi, -24(%rbp)
	movq	%rsi, -32(%rbp)
	movq	-24(%rbp), %rax
	movl	18468(%rax), %eax
	cmpl	$15, %eax
	jg	.L390
	movq	-24(%rbp), %rax
	movq	%rax, %rdi
	call	stbi__grow_buffer_unsafe
.L390:
	movq	-24(%rbp), %rax
	movl	18464(%rax), %eax
	shrl	$23, %eax
	movl	%eax, -12(%rbp)
	movq	-32(%rbp), %rdx
	movl	-12(%rbp), %eax
	cltq
	movzbl	(%rdx,%rax), %eax
	movzbl	%al, %eax
	movl	%eax, -16(%rbp)
	cmpl	$254, -16(%rbp)
	jg	.L391
	movq	-32(%rbp), %rdx
	movl	-16(%rbp), %eax
	cltq
	movzbl	1280(%rdx,%rax), %eax
	movzbl	%al, %eax
	movl	%eax, -4(%rbp)
	movq	-24(%rbp), %rax
	movl	18468(%rax), %eax
	cmpl	%eax, -4(%rbp)
	jle	.L392
	movl	$-1, %eax
	jmp	.L393
.L392:
	movq	-24(%rbp), %rax
	movl	18464(%rax), %edx
	movl	-4(%rbp), %eax
	movl	%eax, %ecx
	sall	%cl, %edx
	movq	-24(%rbp), %rax
	movl	%edx, 18464(%rax)
	movq	-24(%rbp), %rax
	movl	18468(%rax), %eax
	subl	-4(%rbp), %eax
	movl	%eax, %edx
	movq	-24(%rbp), %rax
	movl	%edx, 18468(%rax)
	movq	-32(%rbp), %rdx
	movl	-16(%rbp), %eax
	cltq
	movzbl	1024(%rdx,%rax), %eax
	movzbl	%al, %eax
	jmp	.L393
.L391:
	movq	-24(%rbp), %rax
	movl	18464(%rax), %eax
	shrl	$16, %eax
	movl	%eax, -8(%rbp)
	movl	$10, -16(%rbp)
.L396:
	movq	-32(%rbp), %rax
	movl	-16(%rbp), %edx
	movslq	%edx, %rdx
	addq	$384, %rdx
	movl	4(%rax,%rdx,4), %eax
	cmpl	%eax, -8(%rbp)
	jb	.L401
	addl	$1, -16(%rbp)
	jmp	.L396
.L401:
	nop
	cmpl	$17, -16(%rbp)
	jne	.L397
	movq	-24(%rbp), %rax
	movl	18468(%rax), %eax
	leal	-16(%rax), %edx
	movq	-24(%rbp), %rax
	movl	%edx, 18468(%rax)
	movl	$-1, %eax
	jmp	.L393
.L397:
	movq	-24(%rbp), %rax
	movl	18468(%rax), %eax
	cmpl	%eax, -16(%rbp)
	jle	.L398
	movl	$-1, %eax
	jmp	.L393
.L398:
	movq	-24(%rbp), %rax
	movl	18464(%rax), %edx
	movl	$32, %eax
	subl	-16(%rbp), %eax
	movl	%eax, %ecx
	shrl	%cl, %edx
	movl	%edx, %ecx
	movl	-16(%rbp), %eax
	cltq
	leaq	0(,%rax,4), %rdx
	leaq	stbi__bmask(%rip), %rax
	movl	(%rdx,%rax), %eax
	andl	%eax, %ecx
	movq	-32(%rbp), %rax
	movl	-16(%rbp), %edx
	movslq	%edx, %rdx
	addq	$400, %rdx
	movl	12(%rax,%rdx,4), %eax
	addl	%ecx, %eax
	movl	%eax, -12(%rbp)
	movq	-24(%rbp), %rax
	movl	18464(%rax), %esi
	movq	-32(%rbp), %rdx
	movl	-12(%rbp), %eax
	cltq
	movzbl	1280(%rdx,%rax), %eax
	movzbl	%al, %eax
	movl	$32, %edx
	subl	%eax, %edx
	movl	%edx, %eax
	movl	%eax, %ecx
	shrl	%cl, %esi
	movl	%esi, %ecx
	movq	-32(%rbp), %rdx
	movl	-12(%rbp), %eax
	cltq
	movzbl	1280(%rdx,%rax), %eax
	movzbl	%al, %eax
	cltq
	leaq	0(,%rax,4), %rdx
	leaq	stbi__bmask(%rip), %rax
	movl	(%rdx,%rax), %eax
	andl	%eax, %ecx
	movq	-32(%rbp), %rax
	movl	-12(%rbp), %edx
	movslq	%edx, %rdx
	addq	$256, %rdx
	movzwl	(%rax,%rdx,2), %eax
	movzwl	%ax, %eax
	cmpl	%eax, %ecx
	je	.L399
	leaq	__PRETTY_FUNCTION__.7238(%rip), %rcx
	movl	$2115, %edx
	leaq	.LC2(%rip), %rsi
	leaq	.LC13(%rip), %rdi
	call	__assert_fail@PLT
.L399:
	movq	-24(%rbp), %rax
	movl	18468(%rax), %eax
	subl	-16(%rbp), %eax
	movl	%eax, %edx
	movq	-24(%rbp), %rax
	movl	%edx, 18468(%rax)
	movq	-24(%rbp), %rax
	movl	18464(%rax), %edx
	movl	-16(%rbp), %eax
	movl	%eax, %ecx
	sall	%cl, %edx
	movq	-24(%rbp), %rax
	movl	%edx, 18464(%rax)
	movq	-32(%rbp), %rdx
	movl	-12(%rbp), %eax
	cltq
	movzbl	1024(%rdx,%rax), %eax
	movzbl	%al, %eax
.L393:
	leave
	.cfi_def_cfa 7, 8
	ret
	.cfi_endproc
.LFE576:
	.size	stbi__jpeg_huff_decode, .-stbi__jpeg_huff_decode
	.section	.rodata
	.align 32
	.type	stbi__jbias, @object
	.size	stbi__jbias, 64
stbi__jbias:
	.long	0
	.long	-1
	.long	-3
	.long	-7
	.long	-15
	.long	-31
	.long	-63
	.long	-127
	.long	-255
	.long	-511
	.long	-1023
	.long	-2047
	.long	-4095
	.long	-8191
	.long	-16383
	.long	-32767
	.text
	.type	stbi__extend_receive, @function
stbi__extend_receive:
.LFB577:
	.cfi_startproc
	endbr64
	pushq	%rbp
	.cfi_def_cfa_offset 16
	.cfi_offset 6, -16
	movq	%rsp, %rbp
	.cfi_def_cfa_register 6
	subq	$32, %rsp
	movq	%rdi, -24(%rbp)
	movl	%esi, -28(%rbp)
	movq	-24(%rbp), %rax
	movl	18468(%rax), %eax
	cmpl	%eax, -28(%rbp)
	jle	.L403
	movq	-24(%rbp), %rax
	movq	%rax, %rdi
	call	stbi__grow_buffer_unsafe
.L403:
	movq	-24(%rbp), %rax
	movl	18464(%rax), %eax
	shrl	$31, %eax
	movl	%eax, -8(%rbp)
	movq	-24(%rbp), %rax
	movl	18464(%rax), %edx
	movl	-28(%rbp), %eax
	movl	%eax, %ecx
	roll	%cl, %edx
	movl	%edx, %eax
	movl	%eax, -4(%rbp)
	movl	-28(%rbp), %eax
	cltq
	leaq	0(,%rax,4), %rdx
	leaq	stbi__bmask(%rip), %rax
	movl	(%rdx,%rax), %eax
	notl	%eax
	andl	-4(%rbp), %eax
	movl	%eax, %edx
	movq	-24(%rbp), %rax
	movl	%edx, 18464(%rax)
	movl	-28(%rbp), %eax
	cltq
	leaq	0(,%rax,4), %rdx
	leaq	stbi__bmask(%rip), %rax
	movl	(%rdx,%rax), %eax
	andl	%eax, -4(%rbp)
	movq	-24(%rbp), %rax
	movl	18468(%rax), %eax
	subl	-28(%rbp), %eax
	movl	%eax, %edx
	movq	-24(%rbp), %rax
	movl	%edx, 18468(%rax)
	movl	-28(%rbp), %eax
	cltq
	leaq	0(,%rax,4), %rdx
	leaq	stbi__jbias(%rip), %rax
	movl	(%rdx,%rax), %eax
	movl	-8(%rbp), %edx
	subl	$1, %edx
	andl	%edx, %eax
	movl	%eax, %edx
	movl	-4(%rbp), %eax
	addl	%edx, %eax
	leave
	.cfi_def_cfa 7, 8
	ret
	.cfi_endproc
.LFE577:
	.size	stbi__extend_receive, .-stbi__extend_receive
	.type	stbi__jpeg_get_bits, @function
stbi__jpeg_get_bits:
.LFB578:
	.cfi_startproc
	endbr64
	pushq	%rbp
	.cfi_def_cfa_offset 16
	.cfi_offset 6, -16
	movq	%rsp, %rbp
	.cfi_def_cfa_register 6
	subq	$32, %rsp
	movq	%rdi, -24(%rbp)
	movl	%esi, -28(%rbp)
	movq	-24(%rbp), %rax
	movl	18468(%rax), %eax
	cmpl	%eax, -28(%rbp)
	jle	.L406
	movq	-24(%rbp), %rax
	movq	%rax, %rdi
	call	stbi__grow_buffer_unsafe
.L406:
	movq	-24(%rbp), %rax
	movl	18464(%rax), %edx
	movl	-28(%rbp), %eax
	movl	%eax, %ecx
	roll	%cl, %edx
	movl	%edx, %eax
	movl	%eax, -4(%rbp)
	movl	-28(%rbp), %eax
	cltq
	leaq	0(,%rax,4), %rdx
	leaq	stbi__bmask(%rip), %rax
	movl	(%rdx,%rax), %eax
	notl	%eax
	andl	-4(%rbp), %eax
	movl	%eax, %edx
	movq	-24(%rbp), %rax
	movl	%edx, 18464(%rax)
	movl	-28(%rbp), %eax
	cltq
	leaq	0(,%rax,4), %rdx
	leaq	stbi__bmask(%rip), %rax
	movl	(%rdx,%rax), %eax
	andl	%eax, -4(%rbp)
	movq	-24(%rbp), %rax
	movl	18468(%rax), %eax
	subl	-28(%rbp), %eax
	movl	%eax, %edx
	movq	-24(%rbp), %rax
	movl	%edx, 18468(%rax)
	movl	-4(%rbp), %eax
	leave
	.cfi_def_cfa 7, 8
	ret
	.cfi_endproc
.LFE578:
	.size	stbi__jpeg_get_bits, .-stbi__jpeg_get_bits
	.type	stbi__jpeg_get_bit, @function
stbi__jpeg_get_bit:
.LFB579:
	.cfi_startproc
	endbr64
	pushq	%rbp
	.cfi_def_cfa_offset 16
	.cfi_offset 6, -16
	movq	%rsp, %rbp
	.cfi_def_cfa_register 6
	subq	$32, %rsp
	movq	%rdi, -24(%rbp)
	movq	-24(%rbp), %rax
	movl	18468(%rax), %eax
	testl	%eax, %eax
	jg	.L409
	movq	-24(%rbp), %rax
	movq	%rax, %rdi
	call	stbi__grow_buffer_unsafe
.L409:
	movq	-24(%rbp), %rax
	movl	18464(%rax), %eax
	movl	%eax, -4(%rbp)
	movq	-24(%rbp), %rax
	movl	18464(%rax), %eax
	leal	(%rax,%rax), %edx
	movq	-24(%rbp), %rax
	movl	%edx, 18464(%rax)
	movq	-24(%rbp), %rax
	movl	18468(%rax), %eax
	leal	-1(%rax), %edx
	movq	-24(%rbp), %rax
	movl	%edx, 18468(%rax)
	movl	-4(%rbp), %eax
	andl	$-2147483648, %eax
	leave
	.cfi_def_cfa 7, 8
	ret
	.cfi_endproc
.LFE579:
	.size	stbi__jpeg_get_bit, .-stbi__jpeg_get_bit
	.section	.rodata
	.align 32
	.type	stbi__jpeg_dezigzag, @object
	.size	stbi__jpeg_dezigzag, 79
stbi__jpeg_dezigzag:
	.string	""
	.ascii	"\001\b\020\t\002\003\n\021\030 \031\022\013\004\005\f\023\032"
	.ascii	"!(0)\"\033\024\r\006\007\016\025\034#*1892+$\035\026\017\027"
	.ascii	"\036%,3:;4-&\037'.5<=6/7>????????????????"
.LC14:
	.string	"bad huffman code"
	.text
	.type	stbi__jpeg_decode_block, @function
stbi__jpeg_decode_block:
.LFB580:
	.cfi_startproc
	endbr64
	pushq	%rbp
	.cfi_def_cfa_offset 16
	.cfi_offset 6, -16
	movq	%rsp, %rbp
	.cfi_def_cfa_register 6
	subq	$96, %rsp
	movq	%rdi, -56(%rbp)
	movq	%rsi, -64(%rbp)
	movq	%rdx, -72(%rbp)
	movq	%rcx, -80(%rbp)
	movq	%r8, -88(%rbp)
	movl	%r9d, -92(%rbp)
	movq	-56(%rbp), %rax
	movl	18468(%rax), %eax
	cmpl	$15, %eax
	jg	.L412
	movq	-56(%rbp), %rax
	movq	%rax, %rdi
	call	stbi__grow_buffer_unsafe
.L412:
	movq	-72(%rbp), %rdx
	movq	-56(%rbp), %rax
	movq	%rdx, %rsi
	movq	%rax, %rdi
	call	stbi__jpeg_huff_decode
	movl	%eax, -32(%rbp)
	cmpl	$0, -32(%rbp)
	js	.L413
	cmpl	$15, -32(%rbp)
	jle	.L414
.L413:
	leaq	.LC14(%rip), %rdi
	call	stbi__err
	jmp	.L415
.L414:
	movq	-64(%rbp), %rax
	movl	$128, %edx
	movl	$0, %esi
	movq	%rax, %rdi
	call	memset@PLT
	cmpl	$0, -32(%rbp)
	je	.L416
	movl	-32(%rbp), %edx
	movq	-56(%rbp), %rax
	movl	%edx, %esi
	movq	%rax, %rdi
	call	stbi__extend_receive
	jmp	.L417
.L416:
	movl	$0, %eax
.L417:
	movl	%eax, -28(%rbp)
	movq	-56(%rbp), %rcx
	movl	-92(%rbp), %eax
	movslq	%eax, %rdx
	movq	%rdx, %rax
	addq	%rax, %rax
	addq	%rdx, %rax
	salq	$5, %rax
	addq	%rcx, %rax
	addq	$18104, %rax
	movl	(%rax), %edx
	movl	-28(%rbp), %eax
	addl	%edx, %eax
	movl	%eax, -24(%rbp)
	movq	-56(%rbp), %rcx
	movl	-92(%rbp), %eax
	movslq	%eax, %rdx
	movq	%rdx, %rax
	addq	%rax, %rax
	addq	%rdx, %rax
	salq	$5, %rax
	addq	%rcx, %rax
	leaq	18104(%rax), %rdx
	movl	-24(%rbp), %eax
	movl	%eax, (%rdx)
	movl	-24(%rbp), %eax
	movl	%eax, %edx
	movq	16(%rbp), %rax
	movzwl	(%rax), %eax
	imull	%edx, %eax
	movl	%eax, %edx
	movq	-64(%rbp), %rax
	movw	%dx, (%rax)
	movl	$1, -36(%rbp)
.L425:
	movq	-56(%rbp), %rax
	movl	18468(%rax), %eax
	cmpl	$15, %eax
	jg	.L418
	movq	-56(%rbp), %rax
	movq	%rax, %rdi
	call	stbi__grow_buffer_unsafe
.L418:
	movq	-56(%rbp), %rax
	movl	18464(%rax), %eax
	shrl	$23, %eax
	movl	%eax, -20(%rbp)
	movl	-20(%rbp), %eax
	cltq
	leaq	(%rax,%rax), %rdx
	movq	-88(%rbp), %rax
	addq	%rdx, %rax
	movzwl	(%rax), %eax
	cwtl
	movl	%eax, -16(%rbp)
	cmpl	$0, -16(%rbp)
	je	.L419
	movl	-16(%rbp), %eax
	sarl	$4, %eax
	andl	$15, %eax
	addl	%eax, -36(%rbp)
	movl	-16(%rbp), %eax
	andl	$15, %eax
	movl	%eax, -8(%rbp)
	movq	-56(%rbp), %rax
	movl	18464(%rax), %edx
	movl	-8(%rbp), %eax
	movl	%eax, %ecx
	sall	%cl, %edx
	movq	-56(%rbp), %rax
	movl	%edx, 18464(%rax)
	movq	-56(%rbp), %rax
	movl	18468(%rax), %eax
	subl	-8(%rbp), %eax
	movl	%eax, %edx
	movq	-56(%rbp), %rax
	movl	%edx, 18468(%rax)
	movl	-36(%rbp), %eax
	leal	1(%rax), %edx
	movl	%edx, -36(%rbp)
	cltq
	leaq	stbi__jpeg_dezigzag(%rip), %rdx
	movzbl	(%rax,%rdx), %eax
	movzbl	%al, %eax
	movl	%eax, -4(%rbp)
	movl	-16(%rbp), %eax
	sarl	$8, %eax
	movl	%eax, %ecx
	movl	-4(%rbp), %eax
	leaq	(%rax,%rax), %rdx
	movq	16(%rbp), %rax
	addq	%rdx, %rax
	movzwl	(%rax), %eax
	imull	%eax, %ecx
	movl	%ecx, %edx
	movl	-4(%rbp), %eax
	leaq	(%rax,%rax), %rcx
	movq	-64(%rbp), %rax
	addq	%rcx, %rax
	movw	%dx, (%rax)
	jmp	.L420
.L419:
	movq	-80(%rbp), %rdx
	movq	-56(%rbp), %rax
	movq	%rdx, %rsi
	movq	%rax, %rdi
	call	stbi__jpeg_huff_decode
	movl	%eax, -12(%rbp)
	cmpl	$0, -12(%rbp)
	jns	.L421
	leaq	.LC14(%rip), %rdi
	call	stbi__err
	jmp	.L415
.L421:
	movl	-12(%rbp), %eax
	andl	$15, %eax
	movl	%eax, -8(%rbp)
	movl	-12(%rbp), %eax
	sarl	$4, %eax
	movl	%eax, -16(%rbp)
	cmpl	$0, -8(%rbp)
	jne	.L422
	cmpl	$240, -12(%rbp)
	jne	.L426
	addl	$16, -36(%rbp)
	jmp	.L420
.L422:
	movl	-16(%rbp), %eax
	addl	%eax, -36(%rbp)
	movl	-36(%rbp), %eax
	leal	1(%rax), %edx
	movl	%edx, -36(%rbp)
	cltq
	leaq	stbi__jpeg_dezigzag(%rip), %rdx
	movzbl	(%rax,%rdx), %eax
	movzbl	%al, %eax
	movl	%eax, -4(%rbp)
	movl	-8(%rbp), %edx
	movq	-56(%rbp), %rax
	movl	%edx, %esi
	movq	%rax, %rdi
	call	stbi__extend_receive
	movl	%eax, %ecx
	movl	-4(%rbp), %eax
	leaq	(%rax,%rax), %rdx
	movq	16(%rbp), %rax
	addq	%rdx, %rax
	movzwl	(%rax), %eax
	imull	%eax, %ecx
	movl	%ecx, %edx
	movl	-4(%rbp), %eax
	leaq	(%rax,%rax), %rcx
	movq	-64(%rbp), %rax
	addq	%rcx, %rax
	movw	%dx, (%rax)
.L420:
	cmpl	$63, -36(%rbp)
	jle	.L425
	jmp	.L424
.L426:
	nop
.L424:
	movl	$1, %eax
.L415:
	leave
	.cfi_def_cfa 7, 8
	ret
	.cfi_endproc
.LFE580:
	.size	stbi__jpeg_decode_block, .-stbi__jpeg_decode_block
	.section	.rodata
.LC15:
	.string	"can't merge dc and ac"
	.text
	.type	stbi__jpeg_decode_block_prog_dc, @function
stbi__jpeg_decode_block_prog_dc:
.LFB581:
	.cfi_startproc
	endbr64
	pushq	%rbp
	.cfi_def_cfa_offset 16
	.cfi_offset 6, -16
	movq	%rsp, %rbp
	.cfi_def_cfa_register 6
	subq	$48, %rsp
	movq	%rdi, -24(%rbp)
	movq	%rsi, -32(%rbp)
	movq	%rdx, -40(%rbp)
	movl	%ecx, -44(%rbp)
	movq	-24(%rbp), %rax
	movl	18488(%rax), %eax
	testl	%eax, %eax
	je	.L428
	leaq	.LC15(%rip), %rdi
	call	stbi__err
	jmp	.L429
.L428:
	movq	-24(%rbp), %rax
	movl	18468(%rax), %eax
	cmpl	$15, %eax
	jg	.L430
	movq	-24(%rbp), %rax
	movq	%rax, %rdi
	call	stbi__grow_buffer_unsafe
.L430:
	movq	-24(%rbp), %rax
	movl	18492(%rax), %eax
	testl	%eax, %eax
	jne	.L431
	movq	-32(%rbp), %rax
	movl	$128, %edx
	movl	$0, %esi
	movq	%rax, %rdi
	call	memset@PLT
	movq	-40(%rbp), %rdx
	movq	-24(%rbp), %rax
	movq	%rdx, %rsi
	movq	%rax, %rdi
	call	stbi__jpeg_huff_decode
	movl	%eax, -12(%rbp)
	cmpl	$0, -12(%rbp)
	js	.L432
	cmpl	$15, -12(%rbp)
	jle	.L433
.L432:
	leaq	.LC15(%rip), %rdi
	call	stbi__err
	jmp	.L429
.L433:
	cmpl	$0, -12(%rbp)
	je	.L434
	movl	-12(%rbp), %edx
	movq	-24(%rbp), %rax
	movl	%edx, %esi
	movq	%rax, %rdi
	call	stbi__extend_receive
	jmp	.L435
.L434:
	movl	$0, %eax
.L435:
	movl	%eax, -8(%rbp)
	movq	-24(%rbp), %rcx
	movl	-44(%rbp), %eax
	movslq	%eax, %rdx
	movq	%rdx, %rax
	addq	%rax, %rax
	addq	%rdx, %rax
	salq	$5, %rax
	addq	%rcx, %rax
	addq	$18104, %rax
	movl	(%rax), %edx
	movl	-8(%rbp), %eax
	addl	%edx, %eax
	movl	%eax, -4(%rbp)
	movq	-24(%rbp), %rcx
	movl	-44(%rbp), %eax
	movslq	%eax, %rdx
	movq	%rdx, %rax
	addq	%rax, %rax
	addq	%rdx, %rax
	salq	$5, %rax
	addq	%rcx, %rax
	leaq	18104(%rax), %rdx
	movl	-4(%rbp), %eax
	movl	%eax, (%rdx)
	movl	-4(%rbp), %eax
	movl	%eax, %edx
	movq	-24(%rbp), %rax
	movl	18496(%rax), %eax
	movl	$1, %esi
	movl	%eax, %ecx
	sall	%cl, %esi
	movl	%esi, %eax
	imull	%edx, %eax
	movl	%eax, %edx
	movq	-32(%rbp), %rax
	movw	%dx, (%rax)
	jmp	.L436
.L431:
	movq	-24(%rbp), %rax
	movq	%rax, %rdi
	call	stbi__jpeg_get_bit
	testl	%eax, %eax
	je	.L436
	movq	-32(%rbp), %rax
	movzwl	(%rax), %eax
	movl	%eax, %edx
	movq	-24(%rbp), %rax
	movl	18496(%rax), %eax
	movl	$1, %esi
	movl	%eax, %ecx
	sall	%cl, %esi
	movl	%esi, %eax
	addl	%edx, %eax
	movl	%eax, %edx
	movq	-32(%rbp), %rax
	movw	%dx, (%rax)
.L436:
	movl	$1, %eax
.L429:
	leave
	.cfi_def_cfa 7, 8
	ret
	.cfi_endproc
.LFE581:
	.size	stbi__jpeg_decode_block_prog_dc, .-stbi__jpeg_decode_block_prog_dc
	.type	stbi__jpeg_decode_block_prog_ac, @function
stbi__jpeg_decode_block_prog_ac:
.LFB582:
	.cfi_startproc
	endbr64
	pushq	%rbp
	.cfi_def_cfa_offset 16
	.cfi_offset 6, -16
	movq	%rsp, %rbp
	.cfi_def_cfa_register 6
	subq	$96, %rsp
	movq	%rdi, -72(%rbp)
	movq	%rsi, -80(%rbp)
	movq	%rdx, -88(%rbp)
	movq	%rcx, -96(%rbp)
	movq	-72(%rbp), %rax
	movl	18484(%rax), %eax
	testl	%eax, %eax
	jne	.L438
	leaq	.LC15(%rip), %rdi
	call	stbi__err
	jmp	.L439
.L438:
	movq	-72(%rbp), %rax
	movl	18492(%rax), %eax
	testl	%eax, %eax
	jne	.L440
	movq	-72(%rbp), %rax
	movl	18496(%rax), %eax
	movl	%eax, -40(%rbp)
	movq	-72(%rbp), %rax
	movl	18500(%rax), %eax
	testl	%eax, %eax
	je	.L441
	movq	-72(%rbp), %rax
	movl	18500(%rax), %eax
	leal	-1(%rax), %edx
	movq	-72(%rbp), %rax
	movl	%edx, 18500(%rax)
	movl	$1, %eax
	jmp	.L439
.L441:
	movq	-72(%rbp), %rax
	movl	18484(%rax), %eax
	movl	%eax, -56(%rbp)
.L450:
	movq	-72(%rbp), %rax
	movl	18468(%rax), %eax
	cmpl	$15, %eax
	jg	.L442
	movq	-72(%rbp), %rax
	movq	%rax, %rdi
	call	stbi__grow_buffer_unsafe
.L442:
	movq	-72(%rbp), %rax
	movl	18464(%rax), %eax
	shrl	$23, %eax
	movl	%eax, -36(%rbp)
	movl	-36(%rbp), %eax
	cltq
	leaq	(%rax,%rax), %rdx
	movq	-96(%rbp), %rax
	addq	%rdx, %rax
	movzwl	(%rax), %eax
	cwtl
	movl	%eax, -32(%rbp)
	cmpl	$0, -32(%rbp)
	je	.L443
	movl	-32(%rbp), %eax
	sarl	$4, %eax
	andl	$15, %eax
	addl	%eax, -56(%rbp)
	movl	-32(%rbp), %eax
	andl	$15, %eax
	movl	%eax, -24(%rbp)
	movq	-72(%rbp), %rax
	movl	18464(%rax), %edx
	movl	-24(%rbp), %eax
	movl	%eax, %ecx
	sall	%cl, %edx
	movq	-72(%rbp), %rax
	movl	%edx, 18464(%rax)
	movq	-72(%rbp), %rax
	movl	18468(%rax), %eax
	subl	-24(%rbp), %eax
	movl	%eax, %edx
	movq	-72(%rbp), %rax
	movl	%edx, 18468(%rax)
	movl	-56(%rbp), %eax
	leal	1(%rax), %edx
	movl	%edx, -56(%rbp)
	cltq
	leaq	stbi__jpeg_dezigzag(%rip), %rdx
	movzbl	(%rax,%rdx), %eax
	movzbl	%al, %eax
	movl	%eax, -20(%rbp)
	movl	-32(%rbp), %eax
	sarl	$8, %eax
	movl	%eax, %edx
	movl	-40(%rbp), %eax
	movl	$1, %esi
	movl	%eax, %ecx
	sall	%cl, %esi
	movl	%esi, %eax
	imull	%eax, %edx
	movl	-20(%rbp), %eax
	leaq	(%rax,%rax), %rcx
	movq	-80(%rbp), %rax
	addq	%rcx, %rax
	movw	%dx, (%rax)
	jmp	.L444
.L443:
	movq	-88(%rbp), %rdx
	movq	-72(%rbp), %rax
	movq	%rdx, %rsi
	movq	%rax, %rdi
	call	stbi__jpeg_huff_decode
	movl	%eax, -28(%rbp)
	cmpl	$0, -28(%rbp)
	jns	.L445
	leaq	.LC14(%rip), %rdi
	call	stbi__err
	jmp	.L439
.L445:
	movl	-28(%rbp), %eax
	andl	$15, %eax
	movl	%eax, -24(%rbp)
	movl	-28(%rbp), %eax
	sarl	$4, %eax
	movl	%eax, -32(%rbp)
	cmpl	$0, -24(%rbp)
	jne	.L446
	cmpl	$14, -32(%rbp)
	jg	.L447
	movl	-32(%rbp), %eax
	movl	$1, %edx
	movl	%eax, %ecx
	sall	%cl, %edx
	movq	-72(%rbp), %rax
	movl	%edx, 18500(%rax)
	cmpl	$0, -32(%rbp)
	je	.L448
	movl	-32(%rbp), %edx
	movq	-72(%rbp), %rax
	movl	%edx, %esi
	movq	%rax, %rdi
	call	stbi__jpeg_get_bits
	movq	-72(%rbp), %rdx
	movl	18500(%rdx), %edx
	addl	%eax, %edx
	movq	-72(%rbp), %rax
	movl	%edx, 18500(%rax)
.L448:
	movq	-72(%rbp), %rax
	movl	18500(%rax), %eax
	leal	-1(%rax), %edx
	movq	-72(%rbp), %rax
	movl	%edx, 18500(%rax)
	jmp	.L451
.L447:
	addl	$16, -56(%rbp)
	jmp	.L444
.L446:
	movl	-32(%rbp), %eax
	addl	%eax, -56(%rbp)
	movl	-56(%rbp), %eax
	leal	1(%rax), %edx
	movl	%edx, -56(%rbp)
	cltq
	leaq	stbi__jpeg_dezigzag(%rip), %rdx
	movzbl	(%rax,%rdx), %eax
	movzbl	%al, %eax
	movl	%eax, -20(%rbp)
	movl	-24(%rbp), %edx
	movq	-72(%rbp), %rax
	movl	%edx, %esi
	movq	%rax, %rdi
	call	stbi__extend_receive
	movl	%eax, %edx
	movl	-40(%rbp), %eax
	movl	$1, %esi
	movl	%eax, %ecx
	sall	%cl, %esi
	movl	%esi, %eax
	imull	%eax, %edx
	movl	-20(%rbp), %eax
	leaq	(%rax,%rax), %rcx
	movq	-80(%rbp), %rax
	addq	%rcx, %rax
	movw	%dx, (%rax)
.L444:
	movq	-72(%rbp), %rax
	movl	18488(%rax), %eax
	cmpl	%eax, -56(%rbp)
	jle	.L450
	jmp	.L451
.L440:
	movq	-72(%rbp), %rax
	movl	18496(%rax), %eax
	movl	$1, %edx
	movl	%eax, %ecx
	sall	%cl, %edx
	movl	%edx, %eax
	movw	%ax, -58(%rbp)
	movq	-72(%rbp), %rax
	movl	18500(%rax), %eax
	testl	%eax, %eax
	je	.L452
	movq	-72(%rbp), %rax
	movl	18500(%rax), %eax
	leal	-1(%rax), %edx
	movq	-72(%rbp), %rax
	movl	%edx, 18500(%rax)
	movq	-72(%rbp), %rax
	movl	18484(%rax), %eax
	movl	%eax, -56(%rbp)
	jmp	.L453
.L456:
	movl	-56(%rbp), %eax
	cltq
	leaq	stbi__jpeg_dezigzag(%rip), %rdx
	movzbl	(%rax,%rdx), %eax
	movzbl	%al, %eax
	leaq	(%rax,%rax), %rdx
	movq	-80(%rbp), %rax
	addq	%rdx, %rax
	movq	%rax, -8(%rbp)
	movq	-8(%rbp), %rax
	movzwl	(%rax), %eax
	testw	%ax, %ax
	je	.L454
	movq	-72(%rbp), %rax
	movq	%rax, %rdi
	call	stbi__jpeg_get_bit
	testl	%eax, %eax
	je	.L454
	movq	-8(%rbp), %rax
	movzwl	(%rax), %eax
	andw	-58(%rbp), %ax
	testw	%ax, %ax
	jne	.L454
	movq	-8(%rbp), %rax
	movzwl	(%rax), %eax
	testw	%ax, %ax
	jle	.L455
	movq	-8(%rbp), %rax
	movzwl	(%rax), %eax
	movl	%eax, %edx
	movzwl	-58(%rbp), %eax
	addl	%edx, %eax
	movl	%eax, %edx
	movq	-8(%rbp), %rax
	movw	%dx, (%rax)
	jmp	.L454
.L455:
	movq	-8(%rbp), %rax
	movzwl	(%rax), %eax
	movl	%eax, %edx
	movzwl	-58(%rbp), %eax
	subl	%eax, %edx
	movl	%edx, %eax
	movl	%eax, %edx
	movq	-8(%rbp), %rax
	movw	%dx, (%rax)
.L454:
	addl	$1, -56(%rbp)
.L453:
	movq	-72(%rbp), %rax
	movl	18488(%rax), %eax
	cmpl	%eax, -56(%rbp)
	jle	.L456
	jmp	.L451
.L452:
	movq	-72(%rbp), %rax
	movl	18484(%rax), %eax
	movl	%eax, -56(%rbp)
.L469:
	movq	-88(%rbp), %rdx
	movq	-72(%rbp), %rax
	movq	%rdx, %rsi
	movq	%rax, %rdi
	call	stbi__jpeg_huff_decode
	movl	%eax, -44(%rbp)
	cmpl	$0, -44(%rbp)
	jns	.L457
	leaq	.LC14(%rip), %rdi
	call	stbi__err
	jmp	.L439
.L457:
	movl	-44(%rbp), %eax
	andl	$15, %eax
	movl	%eax, -48(%rbp)
	movl	-44(%rbp), %eax
	sarl	$4, %eax
	movl	%eax, -52(%rbp)
	cmpl	$0, -48(%rbp)
	jne	.L458
	cmpl	$14, -52(%rbp)
	jg	.L463
	movl	-52(%rbp), %eax
	movl	$1, %edx
	movl	%eax, %ecx
	sall	%cl, %edx
	movl	%edx, %eax
	leal	-1(%rax), %edx
	movq	-72(%rbp), %rax
	movl	%edx, 18500(%rax)
	cmpl	$0, -52(%rbp)
	je	.L460
	movl	-52(%rbp), %edx
	movq	-72(%rbp), %rax
	movl	%edx, %esi
	movq	%rax, %rdi
	call	stbi__jpeg_get_bits
	movq	-72(%rbp), %rdx
	movl	18500(%rdx), %edx
	addl	%eax, %edx
	movq	-72(%rbp), %rax
	movl	%edx, 18500(%rax)
.L460:
	movl	$64, -52(%rbp)
	jmp	.L463
.L458:
	cmpl	$1, -48(%rbp)
	je	.L461
	leaq	.LC14(%rip), %rdi
	call	stbi__err
	jmp	.L439
.L461:
	movq	-72(%rbp), %rax
	movq	%rax, %rdi
	call	stbi__jpeg_get_bit
	testl	%eax, %eax
	je	.L462
	movswl	-58(%rbp), %eax
	movl	%eax, -48(%rbp)
	jmp	.L463
.L462:
	movswl	-58(%rbp), %eax
	negl	%eax
	movl	%eax, -48(%rbp)
	jmp	.L463
.L468:
	movl	-56(%rbp), %eax
	leal	1(%rax), %edx
	movl	%edx, -56(%rbp)
	cltq
	leaq	stbi__jpeg_dezigzag(%rip), %rdx
	movzbl	(%rax,%rdx), %eax
	movzbl	%al, %eax
	leaq	(%rax,%rax), %rdx
	movq	-80(%rbp), %rax
	addq	%rdx, %rax
	movq	%rax, -16(%rbp)
	movq	-16(%rbp), %rax
	movzwl	(%rax), %eax
	testw	%ax, %ax
	je	.L464
	movq	-72(%rbp), %rax
	movq	%rax, %rdi
	call	stbi__jpeg_get_bit
	testl	%eax, %eax
	je	.L463
	movq	-16(%rbp), %rax
	movzwl	(%rax), %eax
	andw	-58(%rbp), %ax
	testw	%ax, %ax
	jne	.L463
	movq	-16(%rbp), %rax
	movzwl	(%rax), %eax
	testw	%ax, %ax
	jle	.L465
	movq	-16(%rbp), %rax
	movzwl	(%rax), %eax
	movl	%eax, %edx
	movzwl	-58(%rbp), %eax
	addl	%edx, %eax
	movl	%eax, %edx
	movq	-16(%rbp), %rax
	movw	%dx, (%rax)
	jmp	.L463
.L465:
	movq	-16(%rbp), %rax
	movzwl	(%rax), %eax
	movl	%eax, %edx
	movzwl	-58(%rbp), %eax
	subl	%eax, %edx
	movl	%edx, %eax
	movl	%eax, %edx
	movq	-16(%rbp), %rax
	movw	%dx, (%rax)
	jmp	.L463
.L464:
	cmpl	$0, -52(%rbp)
	jne	.L466
	movl	-48(%rbp), %eax
	movl	%eax, %edx
	movq	-16(%rbp), %rax
	movw	%dx, (%rax)
	jmp	.L467
.L466:
	subl	$1, -52(%rbp)
.L463:
	movq	-72(%rbp), %rax
	movl	18488(%rax), %eax
	cmpl	%eax, -56(%rbp)
	jle	.L468
.L467:
	movq	-72(%rbp), %rax
	movl	18488(%rax), %eax
	cmpl	%eax, -56(%rbp)
	jle	.L469
.L451:
	movl	$1, %eax
.L439:
	leave
	.cfi_def_cfa 7, 8
	ret
	.cfi_endproc
.LFE582:
	.size	stbi__jpeg_decode_block_prog_ac, .-stbi__jpeg_decode_block_prog_ac
	.type	stbi__clamp, @function
stbi__clamp:
.LFB583:
	.cfi_startproc
	endbr64
	pushq	%rbp
	.cfi_def_cfa_offset 16
	.cfi_offset 6, -16
	movq	%rsp, %rbp
	.cfi_def_cfa_register 6
	movl	%edi, -4(%rbp)
	movl	-4(%rbp), %eax
	cmpl	$255, %eax
	jbe	.L471
	cmpl	$0, -4(%rbp)
	jns	.L472
	movl	$0, %eax
	jmp	.L473
.L472:
	cmpl	$255, -4(%rbp)
	jle	.L471
	movl	$-1, %eax
	jmp	.L473
.L471:
	movl	-4(%rbp), %eax
.L473:
	popq	%rbp
	.cfi_def_cfa 7, 8
	ret
	.cfi_endproc
.LFE583:
	.size	stbi__clamp, .-stbi__clamp
	.type	stbi__idct_block, @function
stbi__idct_block:
.LFB584:
	.cfi_startproc
	endbr64
	pushq	%rbp
	.cfi_def_cfa_offset 16
	.cfi_offset 6, -16
	movq	%rsp, %rbp
	.cfi_def_cfa_register 6
	pushq	%rbx
	subq	$456, %rsp
	.cfi_offset 3, -24
	movq	%rdi, -440(%rbp)
	movl	%esi, -444(%rbp)
	movq	%rdx, -456(%rbp)
	movq	%fs:40, %rax
	movq	%rax, -24(%rbp)
	xorl	%eax, %eax
	leaq	-288(%rbp), %rax
	movq	%rax, -312(%rbp)
	movq	-456(%rbp), %rax
	movq	%rax, -296(%rbp)
	movl	$0, -424(%rbp)
	jmp	.L475
.L478:
	movq	-296(%rbp), %rax
	addq	$16, %rax
	movzwl	(%rax), %eax
	testw	%ax, %ax
	jne	.L476
	movq	-296(%rbp), %rax
	addq	$32, %rax
	movzwl	(%rax), %eax
	testw	%ax, %ax
	jne	.L476
	movq	-296(%rbp), %rax
	addq	$48, %rax
	movzwl	(%rax), %eax
	testw	%ax, %ax
	jne	.L476
	movq	-296(%rbp), %rax
	addq	$64, %rax
	movzwl	(%rax), %eax
	testw	%ax, %ax
	jne	.L476
	movq	-296(%rbp), %rax
	addq	$80, %rax
	movzwl	(%rax), %eax
	testw	%ax, %ax
	jne	.L476
	movq	-296(%rbp), %rax
	addq	$96, %rax
	movzwl	(%rax), %eax
	testw	%ax, %ax
	jne	.L476
	movq	-296(%rbp), %rax
	addq	$112, %rax
	movzwl	(%rax), %eax
	testw	%ax, %ax
	jne	.L476
	movq	-296(%rbp), %rax
	movzwl	(%rax), %eax
	cwtl
	sall	$2, %eax
	movl	%eax, -368(%rbp)
	movq	-312(%rbp), %rax
	addq	$224, %rax
	movl	-368(%rbp), %edx
	movl	%edx, (%rax)
	movq	-312(%rbp), %rdx
	addq	$192, %rdx
	movl	(%rax), %eax
	movl	%eax, (%rdx)
	movq	-312(%rbp), %rax
	addq	$160, %rax
	movl	(%rdx), %edx
	movl	%edx, (%rax)
	movq	-312(%rbp), %rdx
	subq	$-128, %rdx
	movl	(%rax), %eax
	movl	%eax, (%rdx)
	movq	-312(%rbp), %rax
	addq	$96, %rax
	movl	(%rdx), %edx
	movl	%edx, (%rax)
	movq	-312(%rbp), %rdx
	addq	$64, %rdx
	movl	(%rax), %eax
	movl	%eax, (%rdx)
	movq	-312(%rbp), %rax
	addq	$32, %rax
	movl	(%rdx), %edx
	movl	%edx, (%rax)
	movl	(%rax), %edx
	movq	-312(%rbp), %rax
	movl	%edx, (%rax)
	jmp	.L477
.L476:
	movq	-296(%rbp), %rax
	addq	$32, %rax
	movzwl	(%rax), %eax
	cwtl
	movl	%eax, -364(%rbp)
	movq	-296(%rbp), %rax
	addq	$96, %rax
	movzwl	(%rax), %eax
	cwtl
	movl	%eax, -360(%rbp)
	movl	-364(%rbp), %edx
	movl	-360(%rbp), %eax
	addl	%edx, %eax
	imull	$2217, %eax, %eax
	movl	%eax, -356(%rbp)
	movl	-360(%rbp), %eax
	imull	$-7567, %eax, %edx
	movl	-356(%rbp), %eax
	addl	%edx, %eax
	movl	%eax, -352(%rbp)
	movl	-364(%rbp), %eax
	imull	$3135, %eax, %edx
	movl	-356(%rbp), %eax
	addl	%edx, %eax
	movl	%eax, -348(%rbp)
	movq	-296(%rbp), %rax
	movzwl	(%rax), %eax
	cwtl
	movl	%eax, -364(%rbp)
	movq	-296(%rbp), %rax
	addq	$64, %rax
	movzwl	(%rax), %eax
	cwtl
	movl	%eax, -360(%rbp)
	movl	-364(%rbp), %edx
	movl	-360(%rbp), %eax
	addl	%edx, %eax
	sall	$12, %eax
	movl	%eax, -344(%rbp)
	movl	-364(%rbp), %eax
	subl	-360(%rbp), %eax
	sall	$12, %eax
	movl	%eax, -340(%rbp)
	movl	-344(%rbp), %edx
	movl	-348(%rbp), %eax
	addl	%edx, %eax
	movl	%eax, -336(%rbp)
	movl	-344(%rbp), %eax
	subl	-348(%rbp), %eax
	movl	%eax, -332(%rbp)
	movl	-340(%rbp), %edx
	movl	-352(%rbp), %eax
	addl	%edx, %eax
	movl	%eax, -328(%rbp)
	movl	-340(%rbp), %eax
	subl	-352(%rbp), %eax
	movl	%eax, -324(%rbp)
	movq	-296(%rbp), %rax
	addq	$112, %rax
	movzwl	(%rax), %eax
	cwtl
	movl	%eax, -344(%rbp)
	movq	-296(%rbp), %rax
	addq	$80, %rax
	movzwl	(%rax), %eax
	cwtl
	movl	%eax, -340(%rbp)
	movq	-296(%rbp), %rax
	addq	$48, %rax
	movzwl	(%rax), %eax
	cwtl
	movl	%eax, -352(%rbp)
	movq	-296(%rbp), %rax
	addq	$16, %rax
	movzwl	(%rax), %eax
	cwtl
	movl	%eax, -348(%rbp)
	movl	-344(%rbp), %edx
	movl	-352(%rbp), %eax
	addl	%edx, %eax
	movl	%eax, -360(%rbp)
	movl	-340(%rbp), %edx
	movl	-348(%rbp), %eax
	addl	%edx, %eax
	movl	%eax, -320(%rbp)
	movl	-344(%rbp), %edx
	movl	-348(%rbp), %eax
	addl	%edx, %eax
	movl	%eax, -356(%rbp)
	movl	-340(%rbp), %edx
	movl	-352(%rbp), %eax
	addl	%edx, %eax
	movl	%eax, -364(%rbp)
	movl	-360(%rbp), %edx
	movl	-320(%rbp), %eax
	addl	%edx, %eax
	imull	$4816, %eax, %eax
	movl	%eax, -316(%rbp)
	movl	-344(%rbp), %eax
	imull	$1223, %eax, %eax
	movl	%eax, -344(%rbp)
	movl	-340(%rbp), %eax
	imull	$8410, %eax, %eax
	movl	%eax, -340(%rbp)
	movl	-352(%rbp), %eax
	imull	$12586, %eax, %eax
	movl	%eax, -352(%rbp)
	movl	-348(%rbp), %eax
	imull	$6149, %eax, %eax
	movl	%eax, -348(%rbp)
	movl	-356(%rbp), %eax
	imull	$-3685, %eax, %edx
	movl	-316(%rbp), %eax
	addl	%edx, %eax
	movl	%eax, -356(%rbp)
	movl	-364(%rbp), %eax
	imull	$-10497, %eax, %edx
	movl	-316(%rbp), %eax
	addl	%edx, %eax
	movl	%eax, -364(%rbp)
	movl	-360(%rbp), %eax
	imull	$-8034, %eax, %eax
	movl	%eax, -360(%rbp)
	movl	-320(%rbp), %eax
	imull	$-1597, %eax, %eax
	movl	%eax, -320(%rbp)
	movl	-356(%rbp), %edx
	movl	-320(%rbp), %eax
	addl	%edx, %eax
	addl	%eax, -348(%rbp)
	movl	-364(%rbp), %edx
	movl	-360(%rbp), %eax
	addl	%edx, %eax
	addl	%eax, -352(%rbp)
	movl	-364(%rbp), %edx
	movl	-320(%rbp), %eax
	addl	%edx, %eax
	addl	%eax, -340(%rbp)
	movl	-356(%rbp), %edx
	movl	-360(%rbp), %eax
	addl	%edx, %eax
	addl	%eax, -344(%rbp)
	addl	$512, -336(%rbp)
	addl	$512, -328(%rbp)
	addl	$512, -324(%rbp)
	addl	$512, -332(%rbp)
	movl	-336(%rbp), %edx
	movl	-348(%rbp), %eax
	addl	%edx, %eax
	sarl	$10, %eax
	movl	%eax, %edx
	movq	-312(%rbp), %rax
	movl	%edx, (%rax)
	movl	-336(%rbp), %eax
	subl	-348(%rbp), %eax
	movl	%eax, %edx
	movq	-312(%rbp), %rax
	addq	$224, %rax
	sarl	$10, %edx
	movl	%edx, (%rax)
	movl	-328(%rbp), %edx
	movl	-352(%rbp), %eax
	addl	%eax, %edx
	movq	-312(%rbp), %rax
	addq	$32, %rax
	sarl	$10, %edx
	movl	%edx, (%rax)
	movl	-328(%rbp), %eax
	subl	-352(%rbp), %eax
	movl	%eax, %edx
	movq	-312(%rbp), %rax
	addq	$192, %rax
	sarl	$10, %edx
	movl	%edx, (%rax)
	movl	-324(%rbp), %edx
	movl	-340(%rbp), %eax
	addl	%eax, %edx
	movq	-312(%rbp), %rax
	addq	$64, %rax
	sarl	$10, %edx
	movl	%edx, (%rax)
	movl	-324(%rbp), %eax
	subl	-340(%rbp), %eax
	movl	%eax, %edx
	movq	-312(%rbp), %rax
	addq	$160, %rax
	sarl	$10, %edx
	movl	%edx, (%rax)
	movl	-332(%rbp), %edx
	movl	-344(%rbp), %eax
	addl	%eax, %edx
	movq	-312(%rbp), %rax
	addq	$96, %rax
	sarl	$10, %edx
	movl	%edx, (%rax)
	movl	-332(%rbp), %eax
	subl	-344(%rbp), %eax
	movl	%eax, %edx
	movq	-312(%rbp), %rax
	subq	$-128, %rax
	sarl	$10, %edx
	movl	%edx, (%rax)
.L477:
	addl	$1, -424(%rbp)
	addq	$2, -296(%rbp)
	addq	$4, -312(%rbp)
.L475:
	cmpl	$7, -424(%rbp)
	jle	.L478
	movl	$0, -424(%rbp)
	leaq	-288(%rbp), %rax
	movq	%rax, -312(%rbp)
	movq	-440(%rbp), %rax
	movq	%rax, -304(%rbp)
	jmp	.L479
.L480:
	movq	-312(%rbp), %rax
	movl	8(%rax), %eax
	movl	%eax, -420(%rbp)
	movq	-312(%rbp), %rax
	movl	24(%rax), %eax
	movl	%eax, -416(%rbp)
	movl	-420(%rbp), %edx
	movl	-416(%rbp), %eax
	addl	%edx, %eax
	imull	$2217, %eax, %eax
	movl	%eax, -412(%rbp)
	movl	-416(%rbp), %eax
	imull	$-7567, %eax, %edx
	movl	-412(%rbp), %eax
	addl	%edx, %eax
	movl	%eax, -408(%rbp)
	movl	-420(%rbp), %eax
	imull	$3135, %eax, %edx
	movl	-412(%rbp), %eax
	addl	%edx, %eax
	movl	%eax, -404(%rbp)
	movq	-312(%rbp), %rax
	movl	(%rax), %eax
	movl	%eax, -420(%rbp)
	movq	-312(%rbp), %rax
	movl	16(%rax), %eax
	movl	%eax, -416(%rbp)
	movl	-420(%rbp), %edx
	movl	-416(%rbp), %eax
	addl	%edx, %eax
	sall	$12, %eax
	movl	%eax, -400(%rbp)
	movl	-420(%rbp), %eax
	subl	-416(%rbp), %eax
	sall	$12, %eax
	movl	%eax, -396(%rbp)
	movl	-400(%rbp), %edx
	movl	-404(%rbp), %eax
	addl	%edx, %eax
	movl	%eax, -392(%rbp)
	movl	-400(%rbp), %eax
	subl	-404(%rbp), %eax
	movl	%eax, -388(%rbp)
	movl	-396(%rbp), %edx
	movl	-408(%rbp), %eax
	addl	%edx, %eax
	movl	%eax, -384(%rbp)
	movl	-396(%rbp), %eax
	subl	-408(%rbp), %eax
	movl	%eax, -380(%rbp)
	movq	-312(%rbp), %rax
	movl	28(%rax), %eax
	movl	%eax, -400(%rbp)
	movq	-312(%rbp), %rax
	movl	20(%rax), %eax
	movl	%eax, -396(%rbp)
	movq	-312(%rbp), %rax
	movl	12(%rax), %eax
	movl	%eax, -408(%rbp)
	movq	-312(%rbp), %rax
	movl	4(%rax), %eax
	movl	%eax, -404(%rbp)
	movl	-400(%rbp), %edx
	movl	-408(%rbp), %eax
	addl	%edx, %eax
	movl	%eax, -416(%rbp)
	movl	-396(%rbp), %edx
	movl	-404(%rbp), %eax
	addl	%edx, %eax
	movl	%eax, -376(%rbp)
	movl	-400(%rbp), %edx
	movl	-404(%rbp), %eax
	addl	%edx, %eax
	movl	%eax, -412(%rbp)
	movl	-396(%rbp), %edx
	movl	-408(%rbp), %eax
	addl	%edx, %eax
	movl	%eax, -420(%rbp)
	movl	-416(%rbp), %edx
	movl	-376(%rbp), %eax
	addl	%edx, %eax
	imull	$4816, %eax, %eax
	movl	%eax, -372(%rbp)
	movl	-400(%rbp), %eax
	imull	$1223, %eax, %eax
	movl	%eax, -400(%rbp)
	movl	-396(%rbp), %eax
	imull	$8410, %eax, %eax
	movl	%eax, -396(%rbp)
	movl	-408(%rbp), %eax
	imull	$12586, %eax, %eax
	movl	%eax, -408(%rbp)
	movl	-404(%rbp), %eax
	imull	$6149, %eax, %eax
	movl	%eax, -404(%rbp)
	movl	-412(%rbp), %eax
	imull	$-3685, %eax, %edx
	movl	-372(%rbp), %eax
	addl	%edx, %eax
	movl	%eax, -412(%rbp)
	movl	-420(%rbp), %eax
	imull	$-10497, %eax, %edx
	movl	-372(%rbp), %eax
	addl	%edx, %eax
	movl	%eax, -420(%rbp)
	movl	-416(%rbp), %eax
	imull	$-8034, %eax, %eax
	movl	%eax, -416(%rbp)
	movl	-376(%rbp), %eax
	imull	$-1597, %eax, %eax
	movl	%eax, -376(%rbp)
	movl	-412(%rbp), %edx
	movl	-376(%rbp), %eax
	addl	%edx, %eax
	addl	%eax, -404(%rbp)
	movl	-420(%rbp), %edx
	movl	-416(%rbp), %eax
	addl	%edx, %eax
	addl	%eax, -408(%rbp)
	movl	-420(%rbp), %edx
	movl	-376(%rbp), %eax
	addl	%edx, %eax
	addl	%eax, -396(%rbp)
	movl	-412(%rbp), %edx
	movl	-416(%rbp), %eax
	addl	%edx, %eax
	addl	%eax, -400(%rbp)
	addl	$16842752, -392(%rbp)
	addl	$16842752, -384(%rbp)
	addl	$16842752, -380(%rbp)
	addl	$16842752, -388(%rbp)
	movl	-392(%rbp), %edx
	movl	-404(%rbp), %eax
	addl	%edx, %eax
	sarl	$17, %eax
	movl	%eax, %edi
	call	stbi__clamp
	movq	-304(%rbp), %rdx
	movb	%al, (%rdx)
	movl	-392(%rbp), %eax
	subl	-404(%rbp), %eax
	sarl	$17, %eax
	movq	-304(%rbp), %rdx
	leaq	7(%rdx), %rbx
	movl	%eax, %edi
	call	stbi__clamp
	movb	%al, (%rbx)
	movl	-384(%rbp), %edx
	movl	-408(%rbp), %eax
	addl	%edx, %eax
	sarl	$17, %eax
	movq	-304(%rbp), %rdx
	leaq	1(%rdx), %rbx
	movl	%eax, %edi
	call	stbi__clamp
	movb	%al, (%rbx)
	movl	-384(%rbp), %eax
	subl	-408(%rbp), %eax
	sarl	$17, %eax
	movq	-304(%rbp), %rdx
	leaq	6(%rdx), %rbx
	movl	%eax, %edi
	call	stbi__clamp
	movb	%al, (%rbx)
	movl	-380(%rbp), %edx
	movl	-396(%rbp), %eax
	addl	%edx, %eax
	sarl	$17, %eax
	movq	-304(%rbp), %rdx
	leaq	2(%rdx), %rbx
	movl	%eax, %edi
	call	stbi__clamp
	movb	%al, (%rbx)
	movl	-380(%rbp), %eax
	subl	-396(%rbp), %eax
	sarl	$17, %eax
	movq	-304(%rbp), %rdx
	leaq	5(%rdx), %rbx
	movl	%eax, %edi
	call	stbi__clamp
	movb	%al, (%rbx)
	movl	-388(%rbp), %edx
	movl	-400(%rbp), %eax
	addl	%edx, %eax
	sarl	$17, %eax
	movq	-304(%rbp), %rdx
	leaq	3(%rdx), %rbx
	movl	%eax, %edi
	call	stbi__clamp
	movb	%al, (%rbx)
	movl	-388(%rbp), %eax
	subl	-400(%rbp), %eax
	sarl	$17, %eax
	movq	-304(%rbp), %rdx
	leaq	4(%rdx), %rbx
	movl	%eax, %edi
	call	stbi__clamp
	movb	%al, (%rbx)
	addl	$1, -424(%rbp)
	addq	$32, -312(%rbp)
	movl	-444(%rbp), %eax
	cltq
	addq	%rax, -304(%rbp)
.L479:
	cmpl	$7, -424(%rbp)
	jle	.L480
	nop
	movq	-24(%rbp), %rax
	xorq	%fs:40, %rax
	je	.L481
	call	__stack_chk_fail@PLT
.L481:
	addq	$456, %rsp
	popq	%rbx
	popq	%rbp
	.cfi_def_cfa 7, 8
	ret
	.cfi_endproc
.LFE584:
	.size	stbi__idct_block, .-stbi__idct_block
	.type	stbi__idct_simd, @function
stbi__idct_simd:
.LFB585:
	.cfi_startproc
	endbr64
	pushq	%rbp
	.cfi_def_cfa_offset 16
	.cfi_offset 6, -16
	movq	%rsp, %rbp
	.cfi_def_cfa_register 6
	subq	$4096, %rsp
	orq	$0, (%rsp)
	subq	$4096, %rsp
	orq	$0, (%rsp)
	subq	$2176, %rsp
	movq	%rdi, -10344(%rbp)
	movl	%esi, -10348(%rbp)
	movq	%rdx, -10360(%rbp)
	movq	%fs:40, %rax
	movq	%rax, -8(%rbp)
	xorl	%eax, %eax
	movw	$2217, -10104(%rbp)
	movw	$-5350, -10102(%rbp)
	movw	$2217, -10100(%rbp)
	movw	$-5350, -10098(%rbp)
	movw	$2217, -10096(%rbp)
	movw	$-5350, -10094(%rbp)
	movw	$2217, -10092(%rbp)
	movw	$-5350, -10090(%rbp)
	movswl	-10104(%rbp), %eax
	movswl	-10102(%rbp), %edx
	movswl	-10100(%rbp), %ecx
	movswl	-10098(%rbp), %esi
	movswl	-10096(%rbp), %edi
	movswl	-10094(%rbp), %r8d
	movswl	-10092(%rbp), %r9d
	movswl	-10090(%rbp), %r10d
	movw	%r10w, -10088(%rbp)
	movw	%r9w, -10086(%rbp)
	movw	%r8w, -10084(%rbp)
	movw	%di, -10082(%rbp)
	movw	%si, -10080(%rbp)
	movw	%cx, -10078(%rbp)
	movw	%dx, -10076(%rbp)
	movw	%ax, -10074(%rbp)
	movzwl	-10074(%rbp), %eax
	movd	%eax, %xmm0
	movzwl	-10076(%rbp), %eax
	pinsrw	$1, %eax, %xmm0
	movdqa	%xmm0, %xmm1
	movzwl	-10078(%rbp), %eax
	movd	%eax, %xmm0
	movzwl	-10080(%rbp), %eax
	pinsrw	$1, %eax, %xmm0
	movdqa	%xmm0, %xmm4
	movzwl	-10082(%rbp), %eax
	movd	%eax, %xmm0
	movzwl	-10084(%rbp), %eax
	pinsrw	$1, %eax, %xmm0
	movdqa	%xmm0, %xmm2
	movzwl	-10086(%rbp), %eax
	movd	%eax, %xmm0
	movzwl	-10088(%rbp), %eax
	pinsrw	$1, %eax, %xmm0
	movdqa	%xmm0, %xmm3
	punpckldq	%xmm4, %xmm1
	movdqa	%xmm1, %xmm0
	movdqa	%xmm0, %xmm1
	punpckldq	%xmm3, %xmm2
	movdqa	%xmm2, %xmm0
	punpcklqdq	%xmm0, %xmm1
	movdqa	%xmm1, %xmm0
	nop
	movaps	%xmm0, -9728(%rbp)
	movw	$5352, -10136(%rbp)
	movw	$2217, -10134(%rbp)
	movw	$5352, -10132(%rbp)
	movw	$2217, -10130(%rbp)
	movw	$5352, -10128(%rbp)
	movw	$2217, -10126(%rbp)
	movw	$5352, -10124(%rbp)
	movw	$2217, -10122(%rbp)
	movswl	-10136(%rbp), %eax
	movswl	-10134(%rbp), %edx
	movswl	-10132(%rbp), %ecx
	movswl	-10130(%rbp), %esi
	movswl	-10128(%rbp), %edi
	movswl	-10126(%rbp), %r8d
	movswl	-10124(%rbp), %r9d
	movswl	-10122(%rbp), %r10d
	movw	%r10w, -10120(%rbp)
	movw	%r9w, -10118(%rbp)
	movw	%r8w, -10116(%rbp)
	movw	%di, -10114(%rbp)
	movw	%si, -10112(%rbp)
	movw	%cx, -10110(%rbp)
	movw	%dx, -10108(%rbp)
	movw	%ax, -10106(%rbp)
	movzwl	-10106(%rbp), %eax
	movd	%eax, %xmm0
	movzwl	-10108(%rbp), %eax
	pinsrw	$1, %eax, %xmm0
	movdqa	%xmm0, %xmm1
	movzwl	-10110(%rbp), %eax
	movd	%eax, %xmm0
	movzwl	-10112(%rbp), %eax
	pinsrw	$1, %eax, %xmm0
	movdqa	%xmm0, %xmm4
	movzwl	-10114(%rbp), %eax
	movd	%eax, %xmm0
	movzwl	-10116(%rbp), %eax
	pinsrw	$1, %eax, %xmm0
	movdqa	%xmm0, %xmm2
	movzwl	-10118(%rbp), %eax
	movd	%eax, %xmm0
	movzwl	-10120(%rbp), %eax
	pinsrw	$1, %eax, %xmm0
	movdqa	%xmm0, %xmm3
	punpckldq	%xmm4, %xmm1
	movdqa	%xmm1, %xmm0
	movdqa	%xmm0, %xmm1
	punpckldq	%xmm3, %xmm2
	movdqa	%xmm2, %xmm0
	punpcklqdq	%xmm0, %xmm1
	movdqa	%xmm1, %xmm0
	nop
	movaps	%xmm0, -9712(%rbp)
	movw	$1131, -10168(%rbp)
	movw	$4816, -10166(%rbp)
	movw	$1131, -10164(%rbp)
	movw	$4816, -10162(%rbp)
	movw	$1131, -10160(%rbp)
	movw	$4816, -10158(%rbp)
	movw	$1131, -10156(%rbp)
	movw	$4816, -10154(%rbp)
	movswl	-10168(%rbp), %eax
	movswl	-10166(%rbp), %edx
	movswl	-10164(%rbp), %ecx
	movswl	-10162(%rbp), %esi
	movswl	-10160(%rbp), %edi
	movswl	-10158(%rbp), %r8d
	movswl	-10156(%rbp), %r9d
	movswl	-10154(%rbp), %r10d
	movw	%r10w, -10152(%rbp)
	movw	%r9w, -10150(%rbp)
	movw	%r8w, -10148(%rbp)
	movw	%di, -10146(%rbp)
	movw	%si, -10144(%rbp)
	movw	%cx, -10142(%rbp)
	movw	%dx, -10140(%rbp)
	movw	%ax, -10138(%rbp)
	movzwl	-10138(%rbp), %eax
	movd	%eax, %xmm0
	movzwl	-10140(%rbp), %eax
	pinsrw	$1, %eax, %xmm0
	movdqa	%xmm0, %xmm1
	movzwl	-10142(%rbp), %eax
	movd	%eax, %xmm0
	movzwl	-10144(%rbp), %eax
	pinsrw	$1, %eax, %xmm0
	movdqa	%xmm0, %xmm4
	movzwl	-10146(%rbp), %eax
	movd	%eax, %xmm0
	movzwl	-10148(%rbp), %eax
	pinsrw	$1, %eax, %xmm0
	movdqa	%xmm0, %xmm2
	movzwl	-10150(%rbp), %eax
	movd	%eax, %xmm0
	movzwl	-10152(%rbp), %eax
	pinsrw	$1, %eax, %xmm0
	movdqa	%xmm0, %xmm3
	punpckldq	%xmm4, %xmm1
	movdqa	%xmm1, %xmm0
	movdqa	%xmm0, %xmm1
	punpckldq	%xmm3, %xmm2
	movdqa	%xmm2, %xmm0
	punpcklqdq	%xmm0, %xmm1
	movdqa	%xmm1, %xmm0
	nop
	movaps	%xmm0, -9696(%rbp)
	movw	$4816, -10200(%rbp)
	movw	$-5681, -10198(%rbp)
	movw	$4816, -10196(%rbp)
	movw	$-5681, -10194(%rbp)
	movw	$4816, -10192(%rbp)
	movw	$-5681, -10190(%rbp)
	movw	$4816, -10188(%rbp)
	movw	$-5681, -10186(%rbp)
	movswl	-10200(%rbp), %eax
	movswl	-10198(%rbp), %edx
	movswl	-10196(%rbp), %ecx
	movswl	-10194(%rbp), %esi
	movswl	-10192(%rbp), %edi
	movswl	-10190(%rbp), %r8d
	movswl	-10188(%rbp), %r9d
	movswl	-10186(%rbp), %r10d
	movw	%r10w, -10184(%rbp)
	movw	%r9w, -10182(%rbp)
	movw	%r8w, -10180(%rbp)
	movw	%di, -10178(%rbp)
	movw	%si, -10176(%rbp)
	movw	%cx, -10174(%rbp)
	movw	%dx, -10172(%rbp)
	movw	%ax, -10170(%rbp)
	movzwl	-10170(%rbp), %eax
	movd	%eax, %xmm0
	movzwl	-10172(%rbp), %eax
	pinsrw	$1, %eax, %xmm0
	movdqa	%xmm0, %xmm1
	movzwl	-10174(%rbp), %eax
	movd	%eax, %xmm0
	movzwl	-10176(%rbp), %eax
	pinsrw	$1, %eax, %xmm0
	movdqa	%xmm0, %xmm4
	movzwl	-10178(%rbp), %eax
	movd	%eax, %xmm0
	movzwl	-10180(%rbp), %eax
	pinsrw	$1, %eax, %xmm0
	movdqa	%xmm0, %xmm2
	movzwl	-10182(%rbp), %eax
	movd	%eax, %xmm0
	movzwl	-10184(%rbp), %eax
	pinsrw	$1, %eax, %xmm0
	movdqa	%xmm0, %xmm3
	punpckldq	%xmm4, %xmm1
	movdqa	%xmm1, %xmm0
	movdqa	%xmm0, %xmm1
	punpckldq	%xmm3, %xmm2
	movdqa	%xmm2, %xmm0
	punpcklqdq	%xmm0, %xmm1
	movdqa	%xmm1, %xmm0
	nop
	movaps	%xmm0, -9680(%rbp)
	movw	$-6811, -10232(%rbp)
	movw	$-8034, -10230(%rbp)
	movw	$-6811, -10228(%rbp)
	movw	$-8034, -10226(%rbp)
	movw	$-6811, -10224(%rbp)
	movw	$-8034, -10222(%rbp)
	movw	$-6811, -10220(%rbp)
	movw	$-8034, -10218(%rbp)
	movswl	-10232(%rbp), %eax
	movswl	-10230(%rbp), %edx
	movswl	-10228(%rbp), %ecx
	movswl	-10226(%rbp), %esi
	movswl	-10224(%rbp), %edi
	movswl	-10222(%rbp), %r8d
	movswl	-10220(%rbp), %r9d
	movswl	-10218(%rbp), %r10d
	movw	%r10w, -10216(%rbp)
	movw	%r9w, -10214(%rbp)
	movw	%r8w, -10212(%rbp)
	movw	%di, -10210(%rbp)
	movw	%si, -10208(%rbp)
	movw	%cx, -10206(%rbp)
	movw	%dx, -10204(%rbp)
	movw	%ax, -10202(%rbp)
	movzwl	-10202(%rbp), %eax
	movd	%eax, %xmm0
	movzwl	-10204(%rbp), %eax
	pinsrw	$1, %eax, %xmm0
	movdqa	%xmm0, %xmm1
	movzwl	-10206(%rbp), %eax
	movd	%eax, %xmm0
	movzwl	-10208(%rbp), %eax
	pinsrw	$1, %eax, %xmm0
	movdqa	%xmm0, %xmm4
	movzwl	-10210(%rbp), %eax
	movd	%eax, %xmm0
	movzwl	-10212(%rbp), %eax
	pinsrw	$1, %eax, %xmm0
	movdqa	%xmm0, %xmm2
	movzwl	-10214(%rbp), %eax
	movd	%eax, %xmm0
	movzwl	-10216(%rbp), %eax
	pinsrw	$1, %eax, %xmm0
	movdqa	%xmm0, %xmm3
	punpckldq	%xmm4, %xmm1
	movdqa	%xmm1, %xmm0
	movdqa	%xmm0, %xmm1
	punpckldq	%xmm3, %xmm2
	movdqa	%xmm2, %xmm0
	punpcklqdq	%xmm0, %xmm1
	movdqa	%xmm1, %xmm0
	nop
	movaps	%xmm0, -9664(%rbp)
	movw	$-8034, -10264(%rbp)
	movw	$4552, -10262(%rbp)
	movw	$-8034, -10260(%rbp)
	movw	$4552, -10258(%rbp)
	movw	$-8034, -10256(%rbp)
	movw	$4552, -10254(%rbp)
	movw	$-8034, -10252(%rbp)
	movw	$4552, -10250(%rbp)
	movswl	-10264(%rbp), %eax
	movswl	-10262(%rbp), %edx
	movswl	-10260(%rbp), %ecx
	movswl	-10258(%rbp), %esi
	movswl	-10256(%rbp), %edi
	movswl	-10254(%rbp), %r8d
	movswl	-10252(%rbp), %r9d
	movswl	-10250(%rbp), %r10d
	movw	%r10w, -10248(%rbp)
	movw	%r9w, -10246(%rbp)
	movw	%r8w, -10244(%rbp)
	movw	%di, -10242(%rbp)
	movw	%si, -10240(%rbp)
	movw	%cx, -10238(%rbp)
	movw	%dx, -10236(%rbp)
	movw	%ax, -10234(%rbp)
	movzwl	-10234(%rbp), %eax
	movd	%eax, %xmm0
	movzwl	-10236(%rbp), %eax
	pinsrw	$1, %eax, %xmm0
	movdqa	%xmm0, %xmm1
	movzwl	-10238(%rbp), %eax
	movd	%eax, %xmm0
	movzwl	-10240(%rbp), %eax
	pinsrw	$1, %eax, %xmm0
	movdqa	%xmm0, %xmm4
	movzwl	-10242(%rbp), %eax
	movd	%eax, %xmm0
	movzwl	-10244(%rbp), %eax
	pinsrw	$1, %eax, %xmm0
	movdqa	%xmm0, %xmm2
	movzwl	-10246(%rbp), %eax
	movd	%eax, %xmm0
	movzwl	-10248(%rbp), %eax
	pinsrw	$1, %eax, %xmm0
	movdqa	%xmm0, %xmm3
	punpckldq	%xmm4, %xmm1
	movdqa	%xmm1, %xmm0
	movdqa	%xmm0, %xmm1
	punpckldq	%xmm3, %xmm2
	movdqa	%xmm2, %xmm0
	punpcklqdq	%xmm0, %xmm1
	movdqa	%xmm1, %xmm0
	nop
	movaps	%xmm0, -9648(%rbp)
	movw	$6813, -10296(%rbp)
	movw	$-1597, -10294(%rbp)
	movw	$6813, -10292(%rbp)
	movw	$-1597, -10290(%rbp)
	movw	$6813, -10288(%rbp)
	movw	$-1597, -10286(%rbp)
	movw	$6813, -10284(%rbp)
	movw	$-1597, -10282(%rbp)
	movswl	-10296(%rbp), %eax
	movswl	-10294(%rbp), %edx
	movswl	-10292(%rbp), %ecx
	movswl	-10290(%rbp), %esi
	movswl	-10288(%rbp), %edi
	movswl	-10286(%rbp), %r8d
	movswl	-10284(%rbp), %r9d
	movswl	-10282(%rbp), %r10d
	movw	%r10w, -10280(%rbp)
	movw	%r9w, -10278(%rbp)
	movw	%r8w, -10276(%rbp)
	movw	%di, -10274(%rbp)
	movw	%si, -10272(%rbp)
	movw	%cx, -10270(%rbp)
	movw	%dx, -10268(%rbp)
	movw	%ax, -10266(%rbp)
	movzwl	-10266(%rbp), %eax
	movd	%eax, %xmm0
	movzwl	-10268(%rbp), %eax
	pinsrw	$1, %eax, %xmm0
	movdqa	%xmm0, %xmm1
	movzwl	-10270(%rbp), %eax
	movd	%eax, %xmm0
	movzwl	-10272(%rbp), %eax
	pinsrw	$1, %eax, %xmm0
	movdqa	%xmm0, %xmm4
	movzwl	-10274(%rbp), %eax
	movd	%eax, %xmm0
	movzwl	-10276(%rbp), %eax
	pinsrw	$1, %eax, %xmm0
	movdqa	%xmm0, %xmm2
	movzwl	-10278(%rbp), %eax
	movd	%eax, %xmm0
	movzwl	-10280(%rbp), %eax
	pinsrw	$1, %eax, %xmm0
	movdqa	%xmm0, %xmm3
	punpckldq	%xmm4, %xmm1
	movdqa	%xmm1, %xmm0
	movdqa	%xmm0, %xmm1
	punpckldq	%xmm3, %xmm2
	movdqa	%xmm2, %xmm0
	punpcklqdq	%xmm0, %xmm1
	movdqa	%xmm1, %xmm0
	nop
	movaps	%xmm0, -9632(%rbp)
	movw	$-1597, -10328(%rbp)
	movw	$4552, -10326(%rbp)
	movw	$-1597, -10324(%rbp)
	movw	$4552, -10322(%rbp)
	movw	$-1597, -10320(%rbp)
	movw	$4552, -10318(%rbp)
	movw	$-1597, -10316(%rbp)
	movw	$4552, -10314(%rbp)
	movswl	-10328(%rbp), %eax
	movswl	-10326(%rbp), %edx
	movswl	-10324(%rbp), %ecx
	movswl	-10322(%rbp), %esi
	movswl	-10320(%rbp), %edi
	movswl	-10318(%rbp), %r8d
	movswl	-10316(%rbp), %r9d
	movswl	-10314(%rbp), %r10d
	movw	%r10w, -10312(%rbp)
	movw	%r9w, -10310(%rbp)
	movw	%r8w, -10308(%rbp)
	movw	%di, -10306(%rbp)
	movw	%si, -10304(%rbp)
	movw	%cx, -10302(%rbp)
	movw	%dx, -10300(%rbp)
	movw	%ax, -10298(%rbp)
	movzwl	-10298(%rbp), %eax
	movd	%eax, %xmm0
	movzwl	-10300(%rbp), %eax
	pinsrw	$1, %eax, %xmm0
	movdqa	%xmm0, %xmm1
	movzwl	-10302(%rbp), %eax
	movd	%eax, %xmm0
	movzwl	-10304(%rbp), %eax
	pinsrw	$1, %eax, %xmm0
	movdqa	%xmm0, %xmm4
	movzwl	-10306(%rbp), %eax
	movd	%eax, %xmm0
	movzwl	-10308(%rbp), %eax
	pinsrw	$1, %eax, %xmm0
	movdqa	%xmm0, %xmm2
	movzwl	-10310(%rbp), %eax
	movd	%eax, %xmm0
	movzwl	-10312(%rbp), %eax
	pinsrw	$1, %eax, %xmm0
	movdqa	%xmm0, %xmm3
	punpckldq	%xmm4, %xmm1
	movdqa	%xmm1, %xmm0
	movdqa	%xmm0, %xmm1
	punpckldq	%xmm3, %xmm2
	movdqa	%xmm2, %xmm0
	punpcklqdq	%xmm0, %xmm1
	movdqa	%xmm1, %xmm0
	nop
	movaps	%xmm0, -9616(%rbp)
	movl	$512, -9892(%rbp)
	movl	-9892(%rbp), %eax
	movl	%eax, -9888(%rbp)
	movl	-9892(%rbp), %eax
	movl	%eax, -9884(%rbp)
	movl	-9892(%rbp), %eax
	movl	%eax, -9880(%rbp)
	movl	-9892(%rbp), %eax
	movl	%eax, -9876(%rbp)
	movl	-9888(%rbp), %eax
	movl	-9884(%rbp), %edx
	movd	%edx, %xmm1
	movd	%eax, %xmm5
	punpckldq	%xmm5, %xmm1
	movl	-9880(%rbp), %eax
	movl	-9876(%rbp), %edx
	movd	%edx, %xmm0
	movd	%eax, %xmm6
	punpckldq	%xmm6, %xmm0
	punpcklqdq	%xmm1, %xmm0
	nop
	movaps	%xmm0, -9600(%rbp)
	movl	$16842752, -9912(%rbp)
	movl	-9912(%rbp), %eax
	movl	%eax, -9908(%rbp)
	movl	-9912(%rbp), %eax
	movl	%eax, -9904(%rbp)
	movl	-9912(%rbp), %eax
	movl	%eax, -9900(%rbp)
	movl	-9912(%rbp), %eax
	movl	%eax, -9896(%rbp)
	movl	-9908(%rbp), %eax
	movl	-9904(%rbp), %edx
	movd	%edx, %xmm1
	movd	%eax, %xmm7
	punpckldq	%xmm7, %xmm1
	movl	-9900(%rbp), %eax
	movl	-9896(%rbp), %edx
	movd	%edx, %xmm0
	movd	%eax, %xmm5
	punpckldq	%xmm5, %xmm0
	punpcklqdq	%xmm1, %xmm0
	nop
	movaps	%xmm0, -9584(%rbp)
	movq	-10360(%rbp), %rax
	movq	%rax, -9752(%rbp)
	movq	-9752(%rbp), %rax
	movdqa	(%rax), %xmm0
	movaps	%xmm0, -9568(%rbp)
	movq	-10360(%rbp), %rax
	addq	$16, %rax
	movq	%rax, -9760(%rbp)
	movq	-9760(%rbp), %rax
	movdqa	(%rax), %xmm0
	movaps	%xmm0, -9552(%rbp)
	movq	-10360(%rbp), %rax
	addq	$32, %rax
	movq	%rax, -9768(%rbp)
	movq	-9768(%rbp), %rax
	movdqa	(%rax), %xmm0
	movaps	%xmm0, -9536(%rbp)
	movq	-10360(%rbp), %rax
	addq	$48, %rax
	movq	%rax, -9776(%rbp)
	movq	-9776(%rbp), %rax
	movdqa	(%rax), %xmm0
	movaps	%xmm0, -9520(%rbp)
	movq	-10360(%rbp), %rax
	addq	$64, %rax
	movq	%rax, -9784(%rbp)
	movq	-9784(%rbp), %rax
	movdqa	(%rax), %xmm0
	movaps	%xmm0, -9504(%rbp)
	movq	-10360(%rbp), %rax
	addq	$80, %rax
	movq	%rax, -9792(%rbp)
	movq	-9792(%rbp), %rax
	movdqa	(%rax), %xmm0
	movaps	%xmm0, -9488(%rbp)
	movq	-10360(%rbp), %rax
	addq	$96, %rax
	movq	%rax, -9800(%rbp)
	movq	-9800(%rbp), %rax
	movdqa	(%rax), %xmm0
	movaps	%xmm0, -9472(%rbp)
	movq	-10360(%rbp), %rax
	addq	$112, %rax
	movq	%rax, -9808(%rbp)
	movq	-9808(%rbp), %rax
	movdqa	(%rax), %xmm0
	movaps	%xmm0, -9456(%rbp)
	movdqa	-9536(%rbp), %xmm0
	movaps	%xmm0, -48(%rbp)
	movdqa	-9472(%rbp), %xmm0
	movaps	%xmm0, -32(%rbp)
	movdqa	-32(%rbp), %xmm1
	movdqa	-48(%rbp), %xmm0
	punpcklwd	%xmm1, %xmm0
	movaps	%xmm0, -9440(%rbp)
	movdqa	-9536(%rbp), %xmm0
	movaps	%xmm0, -80(%rbp)
	movdqa	-9472(%rbp), %xmm0
	movaps	%xmm0, -64(%rbp)
	movdqa	-64(%rbp), %xmm1
	movdqa	-80(%rbp), %xmm0
	punpckhwd	%xmm1, %xmm0
	movaps	%xmm0, -9424(%rbp)
	movdqa	-9440(%rbp), %xmm0
	movaps	%xmm0, -112(%rbp)
	movdqa	-9728(%rbp), %xmm0
	movaps	%xmm0, -96(%rbp)
	movdqa	-96(%rbp), %xmm0
	movdqa	-112(%rbp), %xmm1
	pmaddwd	%xmm1, %xmm0
	movaps	%xmm0, -9408(%rbp)
	movdqa	-9424(%rbp), %xmm0
	movaps	%xmm0, -144(%rbp)
	movdqa	-9728(%rbp), %xmm0
	movaps	%xmm0, -128(%rbp)
	movdqa	-128(%rbp), %xmm0
	movdqa	-144(%rbp), %xmm1
	pmaddwd	%xmm1, %xmm0
	movaps	%xmm0, -9392(%rbp)
	movdqa	-9440(%rbp), %xmm0
	movaps	%xmm0, -176(%rbp)
	movdqa	-9712(%rbp), %xmm0
	movaps	%xmm0, -160(%rbp)
	movdqa	-160(%rbp), %xmm0
	movdqa	-176(%rbp), %xmm1
	pmaddwd	%xmm1, %xmm0
	movaps	%xmm0, -9376(%rbp)
	movdqa	-9424(%rbp), %xmm0
	movaps	%xmm0, -208(%rbp)
	movdqa	-9712(%rbp), %xmm0
	movaps	%xmm0, -192(%rbp)
	movdqa	-192(%rbp), %xmm0
	movdqa	-208(%rbp), %xmm1
	pmaddwd	%xmm1, %xmm0
	movaps	%xmm0, -9360(%rbp)
	movdqa	-9568(%rbp), %xmm0
	movaps	%xmm0, -240(%rbp)
	movdqa	-9504(%rbp), %xmm0
	movaps	%xmm0, -224(%rbp)
	movdqa	-240(%rbp), %xmm1
	movdqa	-224(%rbp), %xmm0
	paddw	%xmm1, %xmm0
	movaps	%xmm0, -9344(%rbp)
	movdqa	-9568(%rbp), %xmm0
	movaps	%xmm0, -272(%rbp)
	movdqa	-9504(%rbp), %xmm0
	movaps	%xmm0, -256(%rbp)
	movdqa	-272(%rbp), %xmm0
	movdqa	-256(%rbp), %xmm1
	psubw	%xmm1, %xmm0
	movaps	%xmm0, -9328(%rbp)
	pxor	%xmm0, %xmm0
	movaps	%xmm0, -304(%rbp)
	movdqa	-9344(%rbp), %xmm0
	movaps	%xmm0, -288(%rbp)
	movdqa	-288(%rbp), %xmm1
	movdqa	-304(%rbp), %xmm0
	punpcklwd	%xmm1, %xmm0
	movaps	%xmm0, -320(%rbp)
	movl	$4, -9916(%rbp)
	movdqa	-320(%rbp), %xmm1
	movd	-9916(%rbp), %xmm0
	psrad	%xmm0, %xmm1
	movdqa	%xmm1, %xmm0
	movaps	%xmm0, -9312(%rbp)
	pxor	%xmm0, %xmm0
	movaps	%xmm0, -352(%rbp)
	movdqa	-9344(%rbp), %xmm0
	movaps	%xmm0, -336(%rbp)
	movdqa	-336(%rbp), %xmm1
	movdqa	-352(%rbp), %xmm0
	punpckhwd	%xmm1, %xmm0
	movaps	%xmm0, -368(%rbp)
	movl	$4, -9920(%rbp)
	movdqa	-368(%rbp), %xmm1
	movd	-9920(%rbp), %xmm0
	psrad	%xmm0, %xmm1
	movdqa	%xmm1, %xmm0
	movaps	%xmm0, -9296(%rbp)
	pxor	%xmm0, %xmm0
	movaps	%xmm0, -400(%rbp)
	movdqa	-9328(%rbp), %xmm0
	movaps	%xmm0, -384(%rbp)
	movdqa	-384(%rbp), %xmm1
	movdqa	-400(%rbp), %xmm0
	punpcklwd	%xmm1, %xmm0
	movaps	%xmm0, -416(%rbp)
	movl	$4, -9924(%rbp)
	movdqa	-416(%rbp), %xmm1
	movd	-9924(%rbp), %xmm0
	psrad	%xmm0, %xmm1
	movdqa	%xmm1, %xmm0
	movaps	%xmm0, -9280(%rbp)
	pxor	%xmm0, %xmm0
	movaps	%xmm0, -448(%rbp)
	movdqa	-9328(%rbp), %xmm0
	movaps	%xmm0, -432(%rbp)
	movdqa	-432(%rbp), %xmm1
	movdqa	-448(%rbp), %xmm0
	punpckhwd	%xmm1, %xmm0
	movaps	%xmm0, -464(%rbp)
	movl	$4, -9928(%rbp)
	movdqa	-464(%rbp), %xmm1
	movd	-9928(%rbp), %xmm0
	psrad	%xmm0, %xmm1
	movdqa	%xmm1, %xmm0
	movaps	%xmm0, -9264(%rbp)
	movdqa	-9312(%rbp), %xmm0
	movaps	%xmm0, -496(%rbp)
	movdqa	-9376(%rbp), %xmm0
	movaps	%xmm0, -480(%rbp)
	movdqa	-496(%rbp), %xmm1
	movdqa	-480(%rbp), %xmm0
	paddd	%xmm1, %xmm0
	movaps	%xmm0, -9248(%rbp)
	movdqa	-9296(%rbp), %xmm0
	movaps	%xmm0, -528(%rbp)
	movdqa	-9360(%rbp), %xmm0
	movaps	%xmm0, -512(%rbp)
	movdqa	-528(%rbp), %xmm1
	movdqa	-512(%rbp), %xmm0
	paddd	%xmm1, %xmm0
	movaps	%xmm0, -9232(%rbp)
	movdqa	-9312(%rbp), %xmm0
	movaps	%xmm0, -560(%rbp)
	movdqa	-9376(%rbp), %xmm0
	movaps	%xmm0, -544(%rbp)
	movdqa	-560(%rbp), %xmm0
	movdqa	-544(%rbp), %xmm1
	psubd	%xmm1, %xmm0
	movaps	%xmm0, -9216(%rbp)
	movdqa	-9296(%rbp), %xmm0
	movaps	%xmm0, -592(%rbp)
	movdqa	-9360(%rbp), %xmm0
	movaps	%xmm0, -576(%rbp)
	movdqa	-592(%rbp), %xmm0
	movdqa	-576(%rbp), %xmm1
	psubd	%xmm1, %xmm0
	movaps	%xmm0, -9200(%rbp)
	movdqa	-9280(%rbp), %xmm0
	movaps	%xmm0, -624(%rbp)
	movdqa	-9408(%rbp), %xmm0
	movaps	%xmm0, -608(%rbp)
	movdqa	-624(%rbp), %xmm1
	movdqa	-608(%rbp), %xmm0
	paddd	%xmm1, %xmm0
	movaps	%xmm0, -9184(%rbp)
	movdqa	-9264(%rbp), %xmm0
	movaps	%xmm0, -656(%rbp)
	movdqa	-9392(%rbp), %xmm0
	movaps	%xmm0, -640(%rbp)
	movdqa	-656(%rbp), %xmm1
	movdqa	-640(%rbp), %xmm0
	paddd	%xmm1, %xmm0
	movaps	%xmm0, -9168(%rbp)
	movdqa	-9280(%rbp), %xmm0
	movaps	%xmm0, -688(%rbp)
	movdqa	-9408(%rbp), %xmm0
	movaps	%xmm0, -672(%rbp)
	movdqa	-688(%rbp), %xmm0
	movdqa	-672(%rbp), %xmm1
	psubd	%xmm1, %xmm0
	movaps	%xmm0, -9152(%rbp)
	movdqa	-9264(%rbp), %xmm0
	movaps	%xmm0, -720(%rbp)
	movdqa	-9392(%rbp), %xmm0
	movaps	%xmm0, -704(%rbp)
	movdqa	-720(%rbp), %xmm0
	movdqa	-704(%rbp), %xmm1
	psubd	%xmm1, %xmm0
	movaps	%xmm0, -9136(%rbp)
	movdqa	-9456(%rbp), %xmm0
	movaps	%xmm0, -752(%rbp)
	movdqa	-9520(%rbp), %xmm0
	movaps	%xmm0, -736(%rbp)
	movdqa	-736(%rbp), %xmm1
	movdqa	-752(%rbp), %xmm0
	punpcklwd	%xmm1, %xmm0
	movaps	%xmm0, -9120(%rbp)
	movdqa	-9456(%rbp), %xmm0
	movaps	%xmm0, -784(%rbp)
	movdqa	-9520(%rbp), %xmm0
	movaps	%xmm0, -768(%rbp)
	movdqa	-768(%rbp), %xmm1
	movdqa	-784(%rbp), %xmm0
	punpckhwd	%xmm1, %xmm0
	movaps	%xmm0, -9104(%rbp)
	movdqa	-9120(%rbp), %xmm0
	movaps	%xmm0, -816(%rbp)
	movdqa	-9664(%rbp), %xmm0
	movaps	%xmm0, -800(%rbp)
	movdqa	-800(%rbp), %xmm0
	movdqa	-816(%rbp), %xmm1
	pmaddwd	%xmm1, %xmm0
	movaps	%xmm0, -9088(%rbp)
	movdqa	-9104(%rbp), %xmm0
	movaps	%xmm0, -848(%rbp)
	movdqa	-9664(%rbp), %xmm0
	movaps	%xmm0, -832(%rbp)
	movdqa	-832(%rbp), %xmm0
	movdqa	-848(%rbp), %xmm1
	pmaddwd	%xmm1, %xmm0
	movaps	%xmm0, -9072(%rbp)
	movdqa	-9120(%rbp), %xmm0
	movaps	%xmm0, -880(%rbp)
	movdqa	-9648(%rbp), %xmm0
	movaps	%xmm0, -864(%rbp)
	movdqa	-864(%rbp), %xmm0
	movdqa	-880(%rbp), %xmm1
	pmaddwd	%xmm1, %xmm0
	movaps	%xmm0, -9056(%rbp)
	movdqa	-9104(%rbp), %xmm0
	movaps	%xmm0, -912(%rbp)
	movdqa	-9648(%rbp), %xmm0
	movaps	%xmm0, -896(%rbp)
	movdqa	-896(%rbp), %xmm0
	movdqa	-912(%rbp), %xmm1
	pmaddwd	%xmm1, %xmm0
	movaps	%xmm0, -9040(%rbp)
	movdqa	-9488(%rbp), %xmm0
	movaps	%xmm0, -944(%rbp)
	movdqa	-9552(%rbp), %xmm0
	movaps	%xmm0, -928(%rbp)
	movdqa	-928(%rbp), %xmm1
	movdqa	-944(%rbp), %xmm0
	punpcklwd	%xmm1, %xmm0
	movaps	%xmm0, -9024(%rbp)
	movdqa	-9488(%rbp), %xmm0
	movaps	%xmm0, -976(%rbp)
	movdqa	-9552(%rbp), %xmm0
	movaps	%xmm0, -960(%rbp)
	movdqa	-960(%rbp), %xmm1
	movdqa	-976(%rbp), %xmm0
	punpckhwd	%xmm1, %xmm0
	movaps	%xmm0, -9008(%rbp)
	movdqa	-9024(%rbp), %xmm0
	movaps	%xmm0, -1008(%rbp)
	movdqa	-9632(%rbp), %xmm0
	movaps	%xmm0, -992(%rbp)
	movdqa	-992(%rbp), %xmm0
	movdqa	-1008(%rbp), %xmm1
	pmaddwd	%xmm1, %xmm0
	movaps	%xmm0, -8992(%rbp)
	movdqa	-9008(%rbp), %xmm0
	movaps	%xmm0, -1040(%rbp)
	movdqa	-9632(%rbp), %xmm0
	movaps	%xmm0, -1024(%rbp)
	movdqa	-1024(%rbp), %xmm0
	movdqa	-1040(%rbp), %xmm1
	pmaddwd	%xmm1, %xmm0
	movaps	%xmm0, -8976(%rbp)
	movdqa	-9024(%rbp), %xmm0
	movaps	%xmm0, -1072(%rbp)
	movdqa	-9616(%rbp), %xmm0
	movaps	%xmm0, -1056(%rbp)
	movdqa	-1056(%rbp), %xmm0
	movdqa	-1072(%rbp), %xmm1
	pmaddwd	%xmm1, %xmm0
	movaps	%xmm0, -8960(%rbp)
	movdqa	-9008(%rbp), %xmm0
	movaps	%xmm0, -1104(%rbp)
	movdqa	-9616(%rbp), %xmm0
	movaps	%xmm0, -1088(%rbp)
	movdqa	-1088(%rbp), %xmm0
	movdqa	-1104(%rbp), %xmm1
	pmaddwd	%xmm1, %xmm0
	movaps	%xmm0, -8944(%rbp)
	movdqa	-9552(%rbp), %xmm0
	movaps	%xmm0, -1136(%rbp)
	movdqa	-9456(%rbp), %xmm0
	movaps	%xmm0, -1120(%rbp)
	movdqa	-1136(%rbp), %xmm1
	movdqa	-1120(%rbp), %xmm0
	paddw	%xmm1, %xmm0
	movaps	%xmm0, -8928(%rbp)
	movdqa	-9520(%rbp), %xmm0
	movaps	%xmm0, -1168(%rbp)
	movdqa	-9488(%rbp), %xmm0
	movaps	%xmm0, -1152(%rbp)
	movdqa	-1168(%rbp), %xmm1
	movdqa	-1152(%rbp), %xmm0
	paddw	%xmm1, %xmm0
	movaps	%xmm0, -8912(%rbp)
	movdqa	-8928(%rbp), %xmm0
	movaps	%xmm0, -1200(%rbp)
	movdqa	-8912(%rbp), %xmm0
	movaps	%xmm0, -1184(%rbp)
	movdqa	-1184(%rbp), %xmm1
	movdqa	-1200(%rbp), %xmm0
	punpcklwd	%xmm1, %xmm0
	movaps	%xmm0, -8896(%rbp)
	movdqa	-8928(%rbp), %xmm0
	movaps	%xmm0, -1232(%rbp)
	movdqa	-8912(%rbp), %xmm0
	movaps	%xmm0, -1216(%rbp)
	movdqa	-1216(%rbp), %xmm1
	movdqa	-1232(%rbp), %xmm0
	punpckhwd	%xmm1, %xmm0
	movaps	%xmm0, -8880(%rbp)
	movdqa	-8896(%rbp), %xmm0
	movaps	%xmm0, -1264(%rbp)
	movdqa	-9696(%rbp), %xmm0
	movaps	%xmm0, -1248(%rbp)
	movdqa	-1248(%rbp), %xmm0
	movdqa	-1264(%rbp), %xmm1
	pmaddwd	%xmm1, %xmm0
	movaps	%xmm0, -8864(%rbp)
	movdqa	-8880(%rbp), %xmm0
	movaps	%xmm0, -1296(%rbp)
	movdqa	-9696(%rbp), %xmm0
	movaps	%xmm0, -1280(%rbp)
	movdqa	-1280(%rbp), %xmm0
	movdqa	-1296(%rbp), %xmm1
	pmaddwd	%xmm1, %xmm0
	movaps	%xmm0, -8848(%rbp)
	movdqa	-8896(%rbp), %xmm0
	movaps	%xmm0, -1328(%rbp)
	movdqa	-9680(%rbp), %xmm0
	movaps	%xmm0, -1312(%rbp)
	movdqa	-1312(%rbp), %xmm0
	movdqa	-1328(%rbp), %xmm1
	pmaddwd	%xmm1, %xmm0
	movaps	%xmm0, -8832(%rbp)
	movdqa	-8880(%rbp), %xmm0
	movaps	%xmm0, -1360(%rbp)
	movdqa	-9680(%rbp), %xmm0
	movaps	%xmm0, -1344(%rbp)
	movdqa	-1344(%rbp), %xmm0
	movdqa	-1360(%rbp), %xmm1
	pmaddwd	%xmm1, %xmm0
	movaps	%xmm0, -8816(%rbp)
	movdqa	-9088(%rbp), %xmm0
	movaps	%xmm0, -1392(%rbp)
	movdqa	-8864(%rbp), %xmm0
	movaps	%xmm0, -1376(%rbp)
	movdqa	-1392(%rbp), %xmm1
	movdqa	-1376(%rbp), %xmm0
	paddd	%xmm1, %xmm0
	movaps	%xmm0, -8800(%rbp)
	movdqa	-9072(%rbp), %xmm0
	movaps	%xmm0, -1424(%rbp)
	movdqa	-8848(%rbp), %xmm0
	movaps	%xmm0, -1408(%rbp)
	movdqa	-1424(%rbp), %xmm1
	movdqa	-1408(%rbp), %xmm0
	paddd	%xmm1, %xmm0
	movaps	%xmm0, -8784(%rbp)
	movdqa	-8992(%rbp), %xmm0
	movaps	%xmm0, -1456(%rbp)
	movdqa	-8832(%rbp), %xmm0
	movaps	%xmm0, -1440(%rbp)
	movdqa	-1456(%rbp), %xmm1
	movdqa	-1440(%rbp), %xmm0
	paddd	%xmm1, %xmm0
	movaps	%xmm0, -8768(%rbp)
	movdqa	-8976(%rbp), %xmm0
	movaps	%xmm0, -1488(%rbp)
	movdqa	-8816(%rbp), %xmm0
	movaps	%xmm0, -1472(%rbp)
	movdqa	-1488(%rbp), %xmm1
	movdqa	-1472(%rbp), %xmm0
	paddd	%xmm1, %xmm0
	movaps	%xmm0, -8752(%rbp)
	movdqa	-9056(%rbp), %xmm0
	movaps	%xmm0, -1520(%rbp)
	movdqa	-8832(%rbp), %xmm0
	movaps	%xmm0, -1504(%rbp)
	movdqa	-1520(%rbp), %xmm1
	movdqa	-1504(%rbp), %xmm0
	paddd	%xmm1, %xmm0
	movaps	%xmm0, -8736(%rbp)
	movdqa	-9040(%rbp), %xmm0
	movaps	%xmm0, -1552(%rbp)
	movdqa	-8816(%rbp), %xmm0
	movaps	%xmm0, -1536(%rbp)
	movdqa	-1552(%rbp), %xmm1
	movdqa	-1536(%rbp), %xmm0
	paddd	%xmm1, %xmm0
	movaps	%xmm0, -8720(%rbp)
	movdqa	-8960(%rbp), %xmm0
	movaps	%xmm0, -1584(%rbp)
	movdqa	-8864(%rbp), %xmm0
	movaps	%xmm0, -1568(%rbp)
	movdqa	-1584(%rbp), %xmm1
	movdqa	-1568(%rbp), %xmm0
	paddd	%xmm1, %xmm0
	movaps	%xmm0, -8704(%rbp)
	movdqa	-8944(%rbp), %xmm0
	movaps	%xmm0, -1616(%rbp)
	movdqa	-8848(%rbp), %xmm0
	movaps	%xmm0, -1600(%rbp)
	movdqa	-1616(%rbp), %xmm1
	movdqa	-1600(%rbp), %xmm0
	paddd	%xmm1, %xmm0
	movaps	%xmm0, -8688(%rbp)
	movdqa	-9248(%rbp), %xmm0
	movaps	%xmm0, -1648(%rbp)
	movdqa	-9600(%rbp), %xmm0
	movaps	%xmm0, -1632(%rbp)
	movdqa	-1648(%rbp), %xmm1
	movdqa	-1632(%rbp), %xmm0
	paddd	%xmm1, %xmm0
	movaps	%xmm0, -8672(%rbp)
	movdqa	-9232(%rbp), %xmm0
	movaps	%xmm0, -1680(%rbp)
	movdqa	-9600(%rbp), %xmm0
	movaps	%xmm0, -1664(%rbp)
	movdqa	-1680(%rbp), %xmm1
	movdqa	-1664(%rbp), %xmm0
	paddd	%xmm1, %xmm0
	movaps	%xmm0, -8656(%rbp)
	movdqa	-8672(%rbp), %xmm0
	movaps	%xmm0, -1712(%rbp)
	movdqa	-8704(%rbp), %xmm0
	movaps	%xmm0, -1696(%rbp)
	movdqa	-1712(%rbp), %xmm1
	movdqa	-1696(%rbp), %xmm0
	paddd	%xmm1, %xmm0
	movaps	%xmm0, -8640(%rbp)
	movdqa	-8656(%rbp), %xmm0
	movaps	%xmm0, -1744(%rbp)
	movdqa	-8688(%rbp), %xmm0
	movaps	%xmm0, -1728(%rbp)
	movdqa	-1744(%rbp), %xmm1
	movdqa	-1728(%rbp), %xmm0
	paddd	%xmm1, %xmm0
	movaps	%xmm0, -8624(%rbp)
	movdqa	-8672(%rbp), %xmm0
	movaps	%xmm0, -1776(%rbp)
	movdqa	-8704(%rbp), %xmm0
	movaps	%xmm0, -1760(%rbp)
	movdqa	-1776(%rbp), %xmm0
	movdqa	-1760(%rbp), %xmm1
	psubd	%xmm1, %xmm0
	movaps	%xmm0, -8608(%rbp)
	movdqa	-8656(%rbp), %xmm0
	movaps	%xmm0, -1808(%rbp)
	movdqa	-8688(%rbp), %xmm0
	movaps	%xmm0, -1792(%rbp)
	movdqa	-1808(%rbp), %xmm0
	movdqa	-1792(%rbp), %xmm1
	psubd	%xmm1, %xmm0
	movaps	%xmm0, -8592(%rbp)
	movdqa	-8624(%rbp), %xmm0
	movaps	%xmm0, -1824(%rbp)
	movl	$10, -9932(%rbp)
	movdqa	-1824(%rbp), %xmm1
	movd	-9932(%rbp), %xmm0
	psrad	%xmm0, %xmm1
	movdqa	%xmm1, %xmm0
	movdqa	%xmm0, %xmm2
	movdqa	-8640(%rbp), %xmm0
	movaps	%xmm0, -1840(%rbp)
	movl	$10, -9936(%rbp)
	movdqa	-1840(%rbp), %xmm1
	movd	-9936(%rbp), %xmm0
	psrad	%xmm0, %xmm1
	movdqa	%xmm1, %xmm0
	movaps	%xmm0, -1872(%rbp)
	movaps	%xmm2, -1856(%rbp)
	movdqa	-1856(%rbp), %xmm1
	movdqa	-1872(%rbp), %xmm0
	packssdw	%xmm1, %xmm0
	movaps	%xmm0, -9568(%rbp)
	movdqa	-8592(%rbp), %xmm0
	movaps	%xmm0, -1888(%rbp)
	movl	$10, -9940(%rbp)
	movdqa	-1888(%rbp), %xmm1
	movd	-9940(%rbp), %xmm0
	psrad	%xmm0, %xmm1
	movdqa	%xmm1, %xmm0
	movdqa	%xmm0, %xmm2
	movdqa	-8608(%rbp), %xmm0
	movaps	%xmm0, -1904(%rbp)
	movl	$10, -9944(%rbp)
	movdqa	-1904(%rbp), %xmm1
	movd	-9944(%rbp), %xmm0
	psrad	%xmm0, %xmm1
	movdqa	%xmm1, %xmm0
	movaps	%xmm0, -1936(%rbp)
	movaps	%xmm2, -1920(%rbp)
	movdqa	-1920(%rbp), %xmm1
	movdqa	-1936(%rbp), %xmm0
	packssdw	%xmm1, %xmm0
	movaps	%xmm0, -9456(%rbp)
	movdqa	-9184(%rbp), %xmm0
	movaps	%xmm0, -1968(%rbp)
	movdqa	-9600(%rbp), %xmm0
	movaps	%xmm0, -1952(%rbp)
	movdqa	-1968(%rbp), %xmm1
	movdqa	-1952(%rbp), %xmm0
	paddd	%xmm1, %xmm0
	movaps	%xmm0, -8576(%rbp)
	movdqa	-9168(%rbp), %xmm0
	movaps	%xmm0, -2000(%rbp)
	movdqa	-9600(%rbp), %xmm0
	movaps	%xmm0, -1984(%rbp)
	movdqa	-2000(%rbp), %xmm1
	movdqa	-1984(%rbp), %xmm0
	paddd	%xmm1, %xmm0
	movaps	%xmm0, -8560(%rbp)
	movdqa	-8576(%rbp), %xmm0
	movaps	%xmm0, -2032(%rbp)
	movdqa	-8736(%rbp), %xmm0
	movaps	%xmm0, -2016(%rbp)
	movdqa	-2032(%rbp), %xmm1
	movdqa	-2016(%rbp), %xmm0
	paddd	%xmm1, %xmm0
	movaps	%xmm0, -8544(%rbp)
	movdqa	-8560(%rbp), %xmm0
	movaps	%xmm0, -2064(%rbp)
	movdqa	-8720(%rbp), %xmm0
	movaps	%xmm0, -2048(%rbp)
	movdqa	-2064(%rbp), %xmm1
	movdqa	-2048(%rbp), %xmm0
	paddd	%xmm1, %xmm0
	movaps	%xmm0, -8528(%rbp)
	movdqa	-8576(%rbp), %xmm0
	movaps	%xmm0, -2096(%rbp)
	movdqa	-8736(%rbp), %xmm0
	movaps	%xmm0, -2080(%rbp)
	movdqa	-2096(%rbp), %xmm0
	movdqa	-2080(%rbp), %xmm1
	psubd	%xmm1, %xmm0
	movaps	%xmm0, -8512(%rbp)
	movdqa	-8560(%rbp), %xmm0
	movaps	%xmm0, -2128(%rbp)
	movdqa	-8720(%rbp), %xmm0
	movaps	%xmm0, -2112(%rbp)
	movdqa	-2128(%rbp), %xmm0
	movdqa	-2112(%rbp), %xmm1
	psubd	%xmm1, %xmm0
	movaps	%xmm0, -8496(%rbp)
	movdqa	-8528(%rbp), %xmm0
	movaps	%xmm0, -2144(%rbp)
	movl	$10, -9948(%rbp)
	movdqa	-2144(%rbp), %xmm1
	movd	-9948(%rbp), %xmm0
	psrad	%xmm0, %xmm1
	movdqa	%xmm1, %xmm0
	movdqa	%xmm0, %xmm2
	movdqa	-8544(%rbp), %xmm0
	movaps	%xmm0, -2160(%rbp)
	movl	$10, -9952(%rbp)
	movdqa	-2160(%rbp), %xmm1
	movd	-9952(%rbp), %xmm0
	psrad	%xmm0, %xmm1
	movdqa	%xmm1, %xmm0
	movaps	%xmm0, -2192(%rbp)
	movaps	%xmm2, -2176(%rbp)
	movdqa	-2176(%rbp), %xmm1
	movdqa	-2192(%rbp), %xmm0
	packssdw	%xmm1, %xmm0
	movaps	%xmm0, -9552(%rbp)
	movdqa	-8496(%rbp), %xmm0
	movaps	%xmm0, -2208(%rbp)
	movl	$10, -9956(%rbp)
	movdqa	-2208(%rbp), %xmm1
	movd	-9956(%rbp), %xmm0
	psrad	%xmm0, %xmm1
	movdqa	%xmm1, %xmm0
	movdqa	%xmm0, %xmm2
	movdqa	-8512(%rbp), %xmm0
	movaps	%xmm0, -2224(%rbp)
	movl	$10, -9960(%rbp)
	movdqa	-2224(%rbp), %xmm1
	movd	-9960(%rbp), %xmm0
	psrad	%xmm0, %xmm1
	movdqa	%xmm1, %xmm0
	movaps	%xmm0, -2256(%rbp)
	movaps	%xmm2, -2240(%rbp)
	movdqa	-2240(%rbp), %xmm1
	movdqa	-2256(%rbp), %xmm0
	packssdw	%xmm1, %xmm0
	movaps	%xmm0, -9472(%rbp)
	movdqa	-9152(%rbp), %xmm0
	movaps	%xmm0, -2288(%rbp)
	movdqa	-9600(%rbp), %xmm0
	movaps	%xmm0, -2272(%rbp)
	movdqa	-2288(%rbp), %xmm1
	movdqa	-2272(%rbp), %xmm0
	paddd	%xmm1, %xmm0
	movaps	%xmm0, -8480(%rbp)
	movdqa	-9136(%rbp), %xmm0
	movaps	%xmm0, -2320(%rbp)
	movdqa	-9600(%rbp), %xmm0
	movaps	%xmm0, -2304(%rbp)
	movdqa	-2320(%rbp), %xmm1
	movdqa	-2304(%rbp), %xmm0
	paddd	%xmm1, %xmm0
	movaps	%xmm0, -8464(%rbp)
	movdqa	-8480(%rbp), %xmm0
	movaps	%xmm0, -2352(%rbp)
	movdqa	-8768(%rbp), %xmm0
	movaps	%xmm0, -2336(%rbp)
	movdqa	-2352(%rbp), %xmm1
	movdqa	-2336(%rbp), %xmm0
	paddd	%xmm1, %xmm0
	movaps	%xmm0, -8448(%rbp)
	movdqa	-8464(%rbp), %xmm0
	movaps	%xmm0, -2384(%rbp)
	movdqa	-8752(%rbp), %xmm0
	movaps	%xmm0, -2368(%rbp)
	movdqa	-2384(%rbp), %xmm1
	movdqa	-2368(%rbp), %xmm0
	paddd	%xmm1, %xmm0
	movaps	%xmm0, -8432(%rbp)
	movdqa	-8480(%rbp), %xmm0
	movaps	%xmm0, -2416(%rbp)
	movdqa	-8768(%rbp), %xmm0
	movaps	%xmm0, -2400(%rbp)
	movdqa	-2416(%rbp), %xmm0
	movdqa	-2400(%rbp), %xmm1
	psubd	%xmm1, %xmm0
	movaps	%xmm0, -8416(%rbp)
	movdqa	-8464(%rbp), %xmm0
	movaps	%xmm0, -2448(%rbp)
	movdqa	-8752(%rbp), %xmm0
	movaps	%xmm0, -2432(%rbp)
	movdqa	-2448(%rbp), %xmm0
	movdqa	-2432(%rbp), %xmm1
	psubd	%xmm1, %xmm0
	movaps	%xmm0, -8400(%rbp)
	movdqa	-8432(%rbp), %xmm0
	movaps	%xmm0, -2464(%rbp)
	movl	$10, -9964(%rbp)
	movdqa	-2464(%rbp), %xmm1
	movd	-9964(%rbp), %xmm0
	psrad	%xmm0, %xmm1
	movdqa	%xmm1, %xmm0
	movdqa	%xmm0, %xmm2
	movdqa	-8448(%rbp), %xmm0
	movaps	%xmm0, -2480(%rbp)
	movl	$10, -9968(%rbp)
	movdqa	-2480(%rbp), %xmm1
	movd	-9968(%rbp), %xmm0
	psrad	%xmm0, %xmm1
	movdqa	%xmm1, %xmm0
	movaps	%xmm0, -2512(%rbp)
	movaps	%xmm2, -2496(%rbp)
	movdqa	-2496(%rbp), %xmm1
	movdqa	-2512(%rbp), %xmm0
	packssdw	%xmm1, %xmm0
	movaps	%xmm0, -9536(%rbp)
	movdqa	-8400(%rbp), %xmm0
	movaps	%xmm0, -2528(%rbp)
	movl	$10, -9972(%rbp)
	movdqa	-2528(%rbp), %xmm1
	movd	-9972(%rbp), %xmm0
	psrad	%xmm0, %xmm1
	movdqa	%xmm1, %xmm0
	movdqa	%xmm0, %xmm2
	movdqa	-8416(%rbp), %xmm0
	movaps	%xmm0, -2544(%rbp)
	movl	$10, -9976(%rbp)
	movdqa	-2544(%rbp), %xmm1
	movd	-9976(%rbp), %xmm0
	psrad	%xmm0, %xmm1
	movdqa	%xmm1, %xmm0
	movaps	%xmm0, -2576(%rbp)
	movaps	%xmm2, -2560(%rbp)
	movdqa	-2560(%rbp), %xmm1
	movdqa	-2576(%rbp), %xmm0
	packssdw	%xmm1, %xmm0
	movaps	%xmm0, -9488(%rbp)
	movdqa	-9216(%rbp), %xmm0
	movaps	%xmm0, -2608(%rbp)
	movdqa	-9600(%rbp), %xmm0
	movaps	%xmm0, -2592(%rbp)
	movdqa	-2608(%rbp), %xmm1
	movdqa	-2592(%rbp), %xmm0
	paddd	%xmm1, %xmm0
	movaps	%xmm0, -8384(%rbp)
	movdqa	-9200(%rbp), %xmm0
	movaps	%xmm0, -2640(%rbp)
	movdqa	-9600(%rbp), %xmm0
	movaps	%xmm0, -2624(%rbp)
	movdqa	-2640(%rbp), %xmm1
	movdqa	-2624(%rbp), %xmm0
	paddd	%xmm1, %xmm0
	movaps	%xmm0, -8368(%rbp)
	movdqa	-8384(%rbp), %xmm0
	movaps	%xmm0, -2672(%rbp)
	movdqa	-8800(%rbp), %xmm0
	movaps	%xmm0, -2656(%rbp)
	movdqa	-2672(%rbp), %xmm1
	movdqa	-2656(%rbp), %xmm0
	paddd	%xmm1, %xmm0
	movaps	%xmm0, -8352(%rbp)
	movdqa	-8368(%rbp), %xmm0
	movaps	%xmm0, -2704(%rbp)
	movdqa	-8784(%rbp), %xmm0
	movaps	%xmm0, -2688(%rbp)
	movdqa	-2704(%rbp), %xmm1
	movdqa	-2688(%rbp), %xmm0
	paddd	%xmm1, %xmm0
	movaps	%xmm0, -8336(%rbp)
	movdqa	-8384(%rbp), %xmm0
	movaps	%xmm0, -2736(%rbp)
	movdqa	-8800(%rbp), %xmm0
	movaps	%xmm0, -2720(%rbp)
	movdqa	-2736(%rbp), %xmm0
	movdqa	-2720(%rbp), %xmm1
	psubd	%xmm1, %xmm0
	movaps	%xmm0, -8320(%rbp)
	movdqa	-8368(%rbp), %xmm0
	movaps	%xmm0, -2768(%rbp)
	movdqa	-8784(%rbp), %xmm0
	movaps	%xmm0, -2752(%rbp)
	movdqa	-2768(%rbp), %xmm0
	movdqa	-2752(%rbp), %xmm1
	psubd	%xmm1, %xmm0
	movaps	%xmm0, -8304(%rbp)
	movdqa	-8336(%rbp), %xmm0
	movaps	%xmm0, -2784(%rbp)
	movl	$10, -9980(%rbp)
	movdqa	-2784(%rbp), %xmm1
	movd	-9980(%rbp), %xmm0
	psrad	%xmm0, %xmm1
	movdqa	%xmm1, %xmm0
	movdqa	%xmm0, %xmm2
	movdqa	-8352(%rbp), %xmm0
	movaps	%xmm0, -2800(%rbp)
	movl	$10, -9984(%rbp)
	movdqa	-2800(%rbp), %xmm1
	movd	-9984(%rbp), %xmm0
	psrad	%xmm0, %xmm1
	movdqa	%xmm1, %xmm0
	movaps	%xmm0, -2832(%rbp)
	movaps	%xmm2, -2816(%rbp)
	movdqa	-2816(%rbp), %xmm1
	movdqa	-2832(%rbp), %xmm0
	packssdw	%xmm1, %xmm0
	movaps	%xmm0, -9520(%rbp)
	movdqa	-8304(%rbp), %xmm0
	movaps	%xmm0, -2848(%rbp)
	movl	$10, -9988(%rbp)
	movdqa	-2848(%rbp), %xmm1
	movd	-9988(%rbp), %xmm0
	psrad	%xmm0, %xmm1
	movdqa	%xmm1, %xmm0
	movdqa	%xmm0, %xmm2
	movdqa	-8320(%rbp), %xmm0
	movaps	%xmm0, -2864(%rbp)
	movl	$10, -9992(%rbp)
	movdqa	-2864(%rbp), %xmm1
	movd	-9992(%rbp), %xmm0
	psrad	%xmm0, %xmm1
	movdqa	%xmm1, %xmm0
	movaps	%xmm0, -2896(%rbp)
	movaps	%xmm2, -2880(%rbp)
	movdqa	-2880(%rbp), %xmm1
	movdqa	-2896(%rbp), %xmm0
	packssdw	%xmm1, %xmm0
	movaps	%xmm0, -9504(%rbp)
	movdqa	-9568(%rbp), %xmm0
	movaps	%xmm0, -8288(%rbp)
	movdqa	-9568(%rbp), %xmm0
	movaps	%xmm0, -2928(%rbp)
	movdqa	-9504(%rbp), %xmm0
	movaps	%xmm0, -2912(%rbp)
	movdqa	-2912(%rbp), %xmm1
	movdqa	-2928(%rbp), %xmm0
	punpcklwd	%xmm1, %xmm0
	movaps	%xmm0, -9568(%rbp)
	movdqa	-8288(%rbp), %xmm0
	movaps	%xmm0, -2960(%rbp)
	movdqa	-9504(%rbp), %xmm0
	movaps	%xmm0, -2944(%rbp)
	movdqa	-2944(%rbp), %xmm1
	movdqa	-2960(%rbp), %xmm0
	punpckhwd	%xmm1, %xmm0
	movaps	%xmm0, -9504(%rbp)
	movdqa	-9552(%rbp), %xmm0
	movaps	%xmm0, -8288(%rbp)
	movdqa	-9552(%rbp), %xmm0
	movaps	%xmm0, -2992(%rbp)
	movdqa	-9488(%rbp), %xmm0
	movaps	%xmm0, -2976(%rbp)
	movdqa	-2976(%rbp), %xmm1
	movdqa	-2992(%rbp), %xmm0
	punpcklwd	%xmm1, %xmm0
	movaps	%xmm0, -9552(%rbp)
	movdqa	-8288(%rbp), %xmm0
	movaps	%xmm0, -3024(%rbp)
	movdqa	-9488(%rbp), %xmm0
	movaps	%xmm0, -3008(%rbp)
	movdqa	-3008(%rbp), %xmm1
	movdqa	-3024(%rbp), %xmm0
	punpckhwd	%xmm1, %xmm0
	movaps	%xmm0, -9488(%rbp)
	movdqa	-9536(%rbp), %xmm0
	movaps	%xmm0, -8288(%rbp)
	movdqa	-9536(%rbp), %xmm0
	movaps	%xmm0, -3056(%rbp)
	movdqa	-9472(%rbp), %xmm0
	movaps	%xmm0, -3040(%rbp)
	movdqa	-3040(%rbp), %xmm1
	movdqa	-3056(%rbp), %xmm0
	punpcklwd	%xmm1, %xmm0
	movaps	%xmm0, -9536(%rbp)
	movdqa	-8288(%rbp), %xmm0
	movaps	%xmm0, -3088(%rbp)
	movdqa	-9472(%rbp), %xmm0
	movaps	%xmm0, -3072(%rbp)
	movdqa	-3072(%rbp), %xmm1
	movdqa	-3088(%rbp), %xmm0
	punpckhwd	%xmm1, %xmm0
	movaps	%xmm0, -9472(%rbp)
	movdqa	-9520(%rbp), %xmm0
	movaps	%xmm0, -8288(%rbp)
	movdqa	-9520(%rbp), %xmm0
	movaps	%xmm0, -3120(%rbp)
	movdqa	-9456(%rbp), %xmm0
	movaps	%xmm0, -3104(%rbp)
	movdqa	-3104(%rbp), %xmm1
	movdqa	-3120(%rbp), %xmm0
	punpcklwd	%xmm1, %xmm0
	movaps	%xmm0, -9520(%rbp)
	movdqa	-8288(%rbp), %xmm0
	movaps	%xmm0, -3152(%rbp)
	movdqa	-9456(%rbp), %xmm0
	movaps	%xmm0, -3136(%rbp)
	movdqa	-3136(%rbp), %xmm1
	movdqa	-3152(%rbp), %xmm0
	punpckhwd	%xmm1, %xmm0
	movaps	%xmm0, -9456(%rbp)
	movdqa	-9568(%rbp), %xmm0
	movaps	%xmm0, -8288(%rbp)
	movdqa	-9568(%rbp), %xmm0
	movaps	%xmm0, -3184(%rbp)
	movdqa	-9536(%rbp), %xmm0
	movaps	%xmm0, -3168(%rbp)
	movdqa	-3168(%rbp), %xmm1
	movdqa	-3184(%rbp), %xmm0
	punpcklwd	%xmm1, %xmm0
	movaps	%xmm0, -9568(%rbp)
	movdqa	-8288(%rbp), %xmm0
	movaps	%xmm0, -3216(%rbp)
	movdqa	-9536(%rbp), %xmm0
	movaps	%xmm0, -3200(%rbp)
	movdqa	-3200(%rbp), %xmm1
	movdqa	-3216(%rbp), %xmm0
	punpckhwd	%xmm1, %xmm0
	movaps	%xmm0, -9536(%rbp)
	movdqa	-9552(%rbp), %xmm0
	movaps	%xmm0, -8288(%rbp)
	movdqa	-9552(%rbp), %xmm0
	movaps	%xmm0, -3248(%rbp)
	movdqa	-9520(%rbp), %xmm0
	movaps	%xmm0, -3232(%rbp)
	movdqa	-3232(%rbp), %xmm1
	movdqa	-3248(%rbp), %xmm0
	punpcklwd	%xmm1, %xmm0
	movaps	%xmm0, -9552(%rbp)
	movdqa	-8288(%rbp), %xmm0
	movaps	%xmm0, -3280(%rbp)
	movdqa	-9520(%rbp), %xmm0
	movaps	%xmm0, -3264(%rbp)
	movdqa	-3264(%rbp), %xmm1
	movdqa	-3280(%rbp), %xmm0
	punpckhwd	%xmm1, %xmm0
	movaps	%xmm0, -9520(%rbp)
	movdqa	-9504(%rbp), %xmm0
	movaps	%xmm0, -8288(%rbp)
	movdqa	-9504(%rbp), %xmm0
	movaps	%xmm0, -3312(%rbp)
	movdqa	-9472(%rbp), %xmm0
	movaps	%xmm0, -3296(%rbp)
	movdqa	-3296(%rbp), %xmm1
	movdqa	-3312(%rbp), %xmm0
	punpcklwd	%xmm1, %xmm0
	movaps	%xmm0, -9504(%rbp)
	movdqa	-8288(%rbp), %xmm0
	movaps	%xmm0, -3344(%rbp)
	movdqa	-9472(%rbp), %xmm0
	movaps	%xmm0, -3328(%rbp)
	movdqa	-3328(%rbp), %xmm1
	movdqa	-3344(%rbp), %xmm0
	punpckhwd	%xmm1, %xmm0
	movaps	%xmm0, -9472(%rbp)
	movdqa	-9488(%rbp), %xmm0
	movaps	%xmm0, -8288(%rbp)
	movdqa	-9488(%rbp), %xmm0
	movaps	%xmm0, -3376(%rbp)
	movdqa	-9456(%rbp), %xmm0
	movaps	%xmm0, -3360(%rbp)
	movdqa	-3360(%rbp), %xmm1
	movdqa	-3376(%rbp), %xmm0
	punpcklwd	%xmm1, %xmm0
	movaps	%xmm0, -9488(%rbp)
	movdqa	-8288(%rbp), %xmm0
	movaps	%xmm0, -3408(%rbp)
	movdqa	-9456(%rbp), %xmm0
	movaps	%xmm0, -3392(%rbp)
	movdqa	-3392(%rbp), %xmm1
	movdqa	-3408(%rbp), %xmm0
	punpckhwd	%xmm1, %xmm0
	movaps	%xmm0, -9456(%rbp)
	movdqa	-9568(%rbp), %xmm0
	movaps	%xmm0, -8288(%rbp)
	movdqa	-9568(%rbp), %xmm0
	movaps	%xmm0, -3440(%rbp)
	movdqa	-9552(%rbp), %xmm0
	movaps	%xmm0, -3424(%rbp)
	movdqa	-3424(%rbp), %xmm1
	movdqa	-3440(%rbp), %xmm0
	punpcklwd	%xmm1, %xmm0
	movaps	%xmm0, -9568(%rbp)
	movdqa	-8288(%rbp), %xmm0
	movaps	%xmm0, -3472(%rbp)
	movdqa	-9552(%rbp), %xmm0
	movaps	%xmm0, -3456(%rbp)
	movdqa	-3456(%rbp), %xmm1
	movdqa	-3472(%rbp), %xmm0
	punpckhwd	%xmm1, %xmm0
	movaps	%xmm0, -9552(%rbp)
	movdqa	-9536(%rbp), %xmm0
	movaps	%xmm0, -8288(%rbp)
	movdqa	-9536(%rbp), %xmm0
	movaps	%xmm0, -3504(%rbp)
	movdqa	-9520(%rbp), %xmm0
	movaps	%xmm0, -3488(%rbp)
	movdqa	-3488(%rbp), %xmm1
	movdqa	-3504(%rbp), %xmm0
	punpcklwd	%xmm1, %xmm0
	movaps	%xmm0, -9536(%rbp)
	movdqa	-8288(%rbp), %xmm0
	movaps	%xmm0, -3536(%rbp)
	movdqa	-9520(%rbp), %xmm0
	movaps	%xmm0, -3520(%rbp)
	movdqa	-3520(%rbp), %xmm1
	movdqa	-3536(%rbp), %xmm0
	punpckhwd	%xmm1, %xmm0
	movaps	%xmm0, -9520(%rbp)
	movdqa	-9504(%rbp), %xmm0
	movaps	%xmm0, -8288(%rbp)
	movdqa	-9504(%rbp), %xmm0
	movaps	%xmm0, -3568(%rbp)
	movdqa	-9488(%rbp), %xmm0
	movaps	%xmm0, -3552(%rbp)
	movdqa	-3552(%rbp), %xmm1
	movdqa	-3568(%rbp), %xmm0
	punpcklwd	%xmm1, %xmm0
	movaps	%xmm0, -9504(%rbp)
	movdqa	-8288(%rbp), %xmm0
	movaps	%xmm0, -3600(%rbp)
	movdqa	-9488(%rbp), %xmm0
	movaps	%xmm0, -3584(%rbp)
	movdqa	-3584(%rbp), %xmm1
	movdqa	-3600(%rbp), %xmm0
	punpckhwd	%xmm1, %xmm0
	movaps	%xmm0, -9488(%rbp)
	movdqa	-9472(%rbp), %xmm0
	movaps	%xmm0, -8288(%rbp)
	movdqa	-9472(%rbp), %xmm0
	movaps	%xmm0, -3632(%rbp)
	movdqa	-9456(%rbp), %xmm0
	movaps	%xmm0, -3616(%rbp)
	movdqa	-3616(%rbp), %xmm1
	movdqa	-3632(%rbp), %xmm0
	punpcklwd	%xmm1, %xmm0
	movaps	%xmm0, -9472(%rbp)
	movdqa	-8288(%rbp), %xmm0
	movaps	%xmm0, -3664(%rbp)
	movdqa	-9456(%rbp), %xmm0
	movaps	%xmm0, -3648(%rbp)
	movdqa	-3648(%rbp), %xmm1
	movdqa	-3664(%rbp), %xmm0
	punpckhwd	%xmm1, %xmm0
	movaps	%xmm0, -9456(%rbp)
	movdqa	-9536(%rbp), %xmm0
	movaps	%xmm0, -3696(%rbp)
	movdqa	-9472(%rbp), %xmm0
	movaps	%xmm0, -3680(%rbp)
	movdqa	-3680(%rbp), %xmm1
	movdqa	-3696(%rbp), %xmm0
	punpcklwd	%xmm1, %xmm0
	movaps	%xmm0, -8272(%rbp)
	movdqa	-9536(%rbp), %xmm0
	movaps	%xmm0, -3728(%rbp)
	movdqa	-9472(%rbp), %xmm0
	movaps	%xmm0, -3712(%rbp)
	movdqa	-3712(%rbp), %xmm1
	movdqa	-3728(%rbp), %xmm0
	punpckhwd	%xmm1, %xmm0
	movaps	%xmm0, -8256(%rbp)
	movdqa	-8272(%rbp), %xmm0
	movaps	%xmm0, -3760(%rbp)
	movdqa	-9728(%rbp), %xmm0
	movaps	%xmm0, -3744(%rbp)
	movdqa	-3744(%rbp), %xmm0
	movdqa	-3760(%rbp), %xmm1
	pmaddwd	%xmm1, %xmm0
	movaps	%xmm0, -8240(%rbp)
	movdqa	-8256(%rbp), %xmm0
	movaps	%xmm0, -3792(%rbp)
	movdqa	-9728(%rbp), %xmm0
	movaps	%xmm0, -3776(%rbp)
	movdqa	-3776(%rbp), %xmm0
	movdqa	-3792(%rbp), %xmm1
	pmaddwd	%xmm1, %xmm0
	movaps	%xmm0, -8224(%rbp)
	movdqa	-8272(%rbp), %xmm0
	movaps	%xmm0, -3824(%rbp)
	movdqa	-9712(%rbp), %xmm0
	movaps	%xmm0, -3808(%rbp)
	movdqa	-3808(%rbp), %xmm0
	movdqa	-3824(%rbp), %xmm1
	pmaddwd	%xmm1, %xmm0
	movaps	%xmm0, -8208(%rbp)
	movdqa	-8256(%rbp), %xmm0
	movaps	%xmm0, -3856(%rbp)
	movdqa	-9712(%rbp), %xmm0
	movaps	%xmm0, -3840(%rbp)
	movdqa	-3840(%rbp), %xmm0
	movdqa	-3856(%rbp), %xmm1
	pmaddwd	%xmm1, %xmm0
	movaps	%xmm0, -8192(%rbp)
	movdqa	-9568(%rbp), %xmm0
	movaps	%xmm0, -3888(%rbp)
	movdqa	-9504(%rbp), %xmm0
	movaps	%xmm0, -3872(%rbp)
	movdqa	-3888(%rbp), %xmm1
	movdqa	-3872(%rbp), %xmm0
	paddw	%xmm1, %xmm0
	movaps	%xmm0, -8176(%rbp)
	movdqa	-9568(%rbp), %xmm0
	movaps	%xmm0, -3920(%rbp)
	movdqa	-9504(%rbp), %xmm0
	movaps	%xmm0, -3904(%rbp)
	movdqa	-3920(%rbp), %xmm0
	movdqa	-3904(%rbp), %xmm1
	psubw	%xmm1, %xmm0
	movaps	%xmm0, -8160(%rbp)
	pxor	%xmm0, %xmm0
	movaps	%xmm0, -3952(%rbp)
	movdqa	-8176(%rbp), %xmm0
	movaps	%xmm0, -3936(%rbp)
	movdqa	-3936(%rbp), %xmm1
	movdqa	-3952(%rbp), %xmm0
	punpcklwd	%xmm1, %xmm0
	movaps	%xmm0, -3968(%rbp)
	movl	$4, -9996(%rbp)
	movdqa	-3968(%rbp), %xmm1
	movd	-9996(%rbp), %xmm0
	psrad	%xmm0, %xmm1
	movdqa	%xmm1, %xmm0
	movaps	%xmm0, -8144(%rbp)
	pxor	%xmm0, %xmm0
	movaps	%xmm0, -4000(%rbp)
	movdqa	-8176(%rbp), %xmm0
	movaps	%xmm0, -3984(%rbp)
	movdqa	-3984(%rbp), %xmm1
	movdqa	-4000(%rbp), %xmm0
	punpckhwd	%xmm1, %xmm0
	movaps	%xmm0, -4016(%rbp)
	movl	$4, -10000(%rbp)
	movdqa	-4016(%rbp), %xmm1
	movd	-10000(%rbp), %xmm0
	psrad	%xmm0, %xmm1
	movdqa	%xmm1, %xmm0
	movaps	%xmm0, -8128(%rbp)
	pxor	%xmm0, %xmm0
	movaps	%xmm0, -4048(%rbp)
	movdqa	-8160(%rbp), %xmm0
	movaps	%xmm0, -4032(%rbp)
	movdqa	-4032(%rbp), %xmm1
	movdqa	-4048(%rbp), %xmm0
	punpcklwd	%xmm1, %xmm0
	movaps	%xmm0, -4064(%rbp)
	movl	$4, -10004(%rbp)
	movdqa	-4064(%rbp), %xmm1
	movd	-10004(%rbp), %xmm0
	psrad	%xmm0, %xmm1
	movdqa	%xmm1, %xmm0
	movaps	%xmm0, -8112(%rbp)
	pxor	%xmm0, %xmm0
	movaps	%xmm0, -4096(%rbp)
	movdqa	-8160(%rbp), %xmm0
	movaps	%xmm0, -4080(%rbp)
	movdqa	-4080(%rbp), %xmm1
	movdqa	-4096(%rbp), %xmm0
	punpckhwd	%xmm1, %xmm0
	movaps	%xmm0, -4112(%rbp)
	movl	$4, -10008(%rbp)
	movdqa	-4112(%rbp), %xmm1
	movd	-10008(%rbp), %xmm0
	psrad	%xmm0, %xmm1
	movdqa	%xmm1, %xmm0
	movaps	%xmm0, -8096(%rbp)
	movdqa	-8144(%rbp), %xmm0
	movaps	%xmm0, -4144(%rbp)
	movdqa	-8208(%rbp), %xmm0
	movaps	%xmm0, -4128(%rbp)
	movdqa	-4144(%rbp), %xmm1
	movdqa	-4128(%rbp), %xmm0
	paddd	%xmm1, %xmm0
	movaps	%xmm0, -8080(%rbp)
	movdqa	-8128(%rbp), %xmm0
	movaps	%xmm0, -4176(%rbp)
	movdqa	-8192(%rbp), %xmm0
	movaps	%xmm0, -4160(%rbp)
	movdqa	-4176(%rbp), %xmm1
	movdqa	-4160(%rbp), %xmm0
	paddd	%xmm1, %xmm0
	movaps	%xmm0, -8064(%rbp)
	movdqa	-8144(%rbp), %xmm0
	movaps	%xmm0, -4208(%rbp)
	movdqa	-8208(%rbp), %xmm0
	movaps	%xmm0, -4192(%rbp)
	movdqa	-4208(%rbp), %xmm0
	movdqa	-4192(%rbp), %xmm1
	psubd	%xmm1, %xmm0
	movaps	%xmm0, -8048(%rbp)
	movdqa	-8128(%rbp), %xmm0
	movaps	%xmm0, -4240(%rbp)
	movdqa	-8192(%rbp), %xmm0
	movaps	%xmm0, -4224(%rbp)
	movdqa	-4240(%rbp), %xmm0
	movdqa	-4224(%rbp), %xmm1
	psubd	%xmm1, %xmm0
	movaps	%xmm0, -8032(%rbp)
	movdqa	-8112(%rbp), %xmm0
	movaps	%xmm0, -4272(%rbp)
	movdqa	-8240(%rbp), %xmm0
	movaps	%xmm0, -4256(%rbp)
	movdqa	-4272(%rbp), %xmm1
	movdqa	-4256(%rbp), %xmm0
	paddd	%xmm1, %xmm0
	movaps	%xmm0, -8016(%rbp)
	movdqa	-8096(%rbp), %xmm0
	movaps	%xmm0, -4304(%rbp)
	movdqa	-8224(%rbp), %xmm0
	movaps	%xmm0, -4288(%rbp)
	movdqa	-4304(%rbp), %xmm1
	movdqa	-4288(%rbp), %xmm0
	paddd	%xmm1, %xmm0
	movaps	%xmm0, -8000(%rbp)
	movdqa	-8112(%rbp), %xmm0
	movaps	%xmm0, -4336(%rbp)
	movdqa	-8240(%rbp), %xmm0
	movaps	%xmm0, -4320(%rbp)
	movdqa	-4336(%rbp), %xmm0
	movdqa	-4320(%rbp), %xmm1
	psubd	%xmm1, %xmm0
	movaps	%xmm0, -7984(%rbp)
	movdqa	-8096(%rbp), %xmm0
	movaps	%xmm0, -4368(%rbp)
	movdqa	-8224(%rbp), %xmm0
	movaps	%xmm0, -4352(%rbp)
	movdqa	-4368(%rbp), %xmm0
	movdqa	-4352(%rbp), %xmm1
	psubd	%xmm1, %xmm0
	movaps	%xmm0, -7968(%rbp)
	movdqa	-9456(%rbp), %xmm0
	movaps	%xmm0, -4400(%rbp)
	movdqa	-9520(%rbp), %xmm0
	movaps	%xmm0, -4384(%rbp)
	movdqa	-4384(%rbp), %xmm1
	movdqa	-4400(%rbp), %xmm0
	punpcklwd	%xmm1, %xmm0
	movaps	%xmm0, -7952(%rbp)
	movdqa	-9456(%rbp), %xmm0
	movaps	%xmm0, -4432(%rbp)
	movdqa	-9520(%rbp), %xmm0
	movaps	%xmm0, -4416(%rbp)
	movdqa	-4416(%rbp), %xmm1
	movdqa	-4432(%rbp), %xmm0
	punpckhwd	%xmm1, %xmm0
	movaps	%xmm0, -7936(%rbp)
	movdqa	-7952(%rbp), %xmm0
	movaps	%xmm0, -4464(%rbp)
	movdqa	-9664(%rbp), %xmm0
	movaps	%xmm0, -4448(%rbp)
	movdqa	-4448(%rbp), %xmm0
	movdqa	-4464(%rbp), %xmm1
	pmaddwd	%xmm1, %xmm0
	movaps	%xmm0, -7920(%rbp)
	movdqa	-7936(%rbp), %xmm0
	movaps	%xmm0, -4496(%rbp)
	movdqa	-9664(%rbp), %xmm0
	movaps	%xmm0, -4480(%rbp)
	movdqa	-4480(%rbp), %xmm0
	movdqa	-4496(%rbp), %xmm1
	pmaddwd	%xmm1, %xmm0
	movaps	%xmm0, -7904(%rbp)
	movdqa	-7952(%rbp), %xmm0
	movaps	%xmm0, -4528(%rbp)
	movdqa	-9648(%rbp), %xmm0
	movaps	%xmm0, -4512(%rbp)
	movdqa	-4512(%rbp), %xmm0
	movdqa	-4528(%rbp), %xmm1
	pmaddwd	%xmm1, %xmm0
	movaps	%xmm0, -7888(%rbp)
	movdqa	-7936(%rbp), %xmm0
	movaps	%xmm0, -4560(%rbp)
	movdqa	-9648(%rbp), %xmm0
	movaps	%xmm0, -4544(%rbp)
	movdqa	-4544(%rbp), %xmm0
	movdqa	-4560(%rbp), %xmm1
	pmaddwd	%xmm1, %xmm0
	movaps	%xmm0, -7872(%rbp)
	movdqa	-9488(%rbp), %xmm0
	movaps	%xmm0, -4592(%rbp)
	movdqa	-9552(%rbp), %xmm0
	movaps	%xmm0, -4576(%rbp)
	movdqa	-4576(%rbp), %xmm1
	movdqa	-4592(%rbp), %xmm0
	punpcklwd	%xmm1, %xmm0
	movaps	%xmm0, -7856(%rbp)
	movdqa	-9488(%rbp), %xmm0
	movaps	%xmm0, -4624(%rbp)
	movdqa	-9552(%rbp), %xmm0
	movaps	%xmm0, -4608(%rbp)
	movdqa	-4608(%rbp), %xmm1
	movdqa	-4624(%rbp), %xmm0
	punpckhwd	%xmm1, %xmm0
	movaps	%xmm0, -7840(%rbp)
	movdqa	-7856(%rbp), %xmm0
	movaps	%xmm0, -4656(%rbp)
	movdqa	-9632(%rbp), %xmm0
	movaps	%xmm0, -4640(%rbp)
	movdqa	-4640(%rbp), %xmm0
	movdqa	-4656(%rbp), %xmm1
	pmaddwd	%xmm1, %xmm0
	movaps	%xmm0, -7824(%rbp)
	movdqa	-7840(%rbp), %xmm0
	movaps	%xmm0, -4688(%rbp)
	movdqa	-9632(%rbp), %xmm0
	movaps	%xmm0, -4672(%rbp)
	movdqa	-4672(%rbp), %xmm0
	movdqa	-4688(%rbp), %xmm1
	pmaddwd	%xmm1, %xmm0
	movaps	%xmm0, -7808(%rbp)
	movdqa	-7856(%rbp), %xmm0
	movaps	%xmm0, -4720(%rbp)
	movdqa	-9616(%rbp), %xmm0
	movaps	%xmm0, -4704(%rbp)
	movdqa	-4704(%rbp), %xmm0
	movdqa	-4720(%rbp), %xmm1
	pmaddwd	%xmm1, %xmm0
	movaps	%xmm0, -7792(%rbp)
	movdqa	-7840(%rbp), %xmm0
	movaps	%xmm0, -4752(%rbp)
	movdqa	-9616(%rbp), %xmm0
	movaps	%xmm0, -4736(%rbp)
	movdqa	-4736(%rbp), %xmm0
	movdqa	-4752(%rbp), %xmm1
	pmaddwd	%xmm1, %xmm0
	movaps	%xmm0, -7776(%rbp)
	movdqa	-9552(%rbp), %xmm0
	movaps	%xmm0, -4784(%rbp)
	movdqa	-9456(%rbp), %xmm0
	movaps	%xmm0, -4768(%rbp)
	movdqa	-4784(%rbp), %xmm1
	movdqa	-4768(%rbp), %xmm0
	paddw	%xmm1, %xmm0
	movaps	%xmm0, -7760(%rbp)
	movdqa	-9520(%rbp), %xmm0
	movaps	%xmm0, -4816(%rbp)
	movdqa	-9488(%rbp), %xmm0
	movaps	%xmm0, -4800(%rbp)
	movdqa	-4816(%rbp), %xmm1
	movdqa	-4800(%rbp), %xmm0
	paddw	%xmm1, %xmm0
	movaps	%xmm0, -7744(%rbp)
	movdqa	-7760(%rbp), %xmm0
	movaps	%xmm0, -4848(%rbp)
	movdqa	-7744(%rbp), %xmm0
	movaps	%xmm0, -4832(%rbp)
	movdqa	-4832(%rbp), %xmm1
	movdqa	-4848(%rbp), %xmm0
	punpcklwd	%xmm1, %xmm0
	movaps	%xmm0, -7728(%rbp)
	movdqa	-7760(%rbp), %xmm0
	movaps	%xmm0, -4880(%rbp)
	movdqa	-7744(%rbp), %xmm0
	movaps	%xmm0, -4864(%rbp)
	movdqa	-4864(%rbp), %xmm1
	movdqa	-4880(%rbp), %xmm0
	punpckhwd	%xmm1, %xmm0
	movaps	%xmm0, -7712(%rbp)
	movdqa	-7728(%rbp), %xmm0
	movaps	%xmm0, -4912(%rbp)
	movdqa	-9696(%rbp), %xmm0
	movaps	%xmm0, -4896(%rbp)
	movdqa	-4896(%rbp), %xmm0
	movdqa	-4912(%rbp), %xmm1
	pmaddwd	%xmm1, %xmm0
	movaps	%xmm0, -7696(%rbp)
	movdqa	-7712(%rbp), %xmm0
	movaps	%xmm0, -4944(%rbp)
	movdqa	-9696(%rbp), %xmm0
	movaps	%xmm0, -4928(%rbp)
	movdqa	-4928(%rbp), %xmm0
	movdqa	-4944(%rbp), %xmm1
	pmaddwd	%xmm1, %xmm0
	movaps	%xmm0, -7680(%rbp)
	movdqa	-7728(%rbp), %xmm0
	movaps	%xmm0, -4976(%rbp)
	movdqa	-9680(%rbp), %xmm0
	movaps	%xmm0, -4960(%rbp)
	movdqa	-4960(%rbp), %xmm0
	movdqa	-4976(%rbp), %xmm1
	pmaddwd	%xmm1, %xmm0
	movaps	%xmm0, -7664(%rbp)
	movdqa	-7712(%rbp), %xmm0
	movaps	%xmm0, -5008(%rbp)
	movdqa	-9680(%rbp), %xmm0
	movaps	%xmm0, -4992(%rbp)
	movdqa	-4992(%rbp), %xmm0
	movdqa	-5008(%rbp), %xmm1
	pmaddwd	%xmm1, %xmm0
	movaps	%xmm0, -7648(%rbp)
	movdqa	-7920(%rbp), %xmm0
	movaps	%xmm0, -5040(%rbp)
	movdqa	-7696(%rbp), %xmm0
	movaps	%xmm0, -5024(%rbp)
	movdqa	-5040(%rbp), %xmm1
	movdqa	-5024(%rbp), %xmm0
	paddd	%xmm1, %xmm0
	movaps	%xmm0, -7632(%rbp)
	movdqa	-7904(%rbp), %xmm0
	movaps	%xmm0, -5072(%rbp)
	movdqa	-7680(%rbp), %xmm0
	movaps	%xmm0, -5056(%rbp)
	movdqa	-5072(%rbp), %xmm1
	movdqa	-5056(%rbp), %xmm0
	paddd	%xmm1, %xmm0
	movaps	%xmm0, -7616(%rbp)
	movdqa	-7824(%rbp), %xmm0
	movaps	%xmm0, -5104(%rbp)
	movdqa	-7664(%rbp), %xmm0
	movaps	%xmm0, -5088(%rbp)
	movdqa	-5104(%rbp), %xmm1
	movdqa	-5088(%rbp), %xmm0
	paddd	%xmm1, %xmm0
	movaps	%xmm0, -7600(%rbp)
	movdqa	-7808(%rbp), %xmm0
	movaps	%xmm0, -5136(%rbp)
	movdqa	-7648(%rbp), %xmm0
	movaps	%xmm0, -5120(%rbp)
	movdqa	-5136(%rbp), %xmm1
	movdqa	-5120(%rbp), %xmm0
	paddd	%xmm1, %xmm0
	movaps	%xmm0, -7584(%rbp)
	movdqa	-7888(%rbp), %xmm0
	movaps	%xmm0, -5168(%rbp)
	movdqa	-7664(%rbp), %xmm0
	movaps	%xmm0, -5152(%rbp)
	movdqa	-5168(%rbp), %xmm1
	movdqa	-5152(%rbp), %xmm0
	paddd	%xmm1, %xmm0
	movaps	%xmm0, -7568(%rbp)
	movdqa	-7872(%rbp), %xmm0
	movaps	%xmm0, -5200(%rbp)
	movdqa	-7648(%rbp), %xmm0
	movaps	%xmm0, -5184(%rbp)
	movdqa	-5200(%rbp), %xmm1
	movdqa	-5184(%rbp), %xmm0
	paddd	%xmm1, %xmm0
	movaps	%xmm0, -7552(%rbp)
	movdqa	-7792(%rbp), %xmm0
	movaps	%xmm0, -5232(%rbp)
	movdqa	-7696(%rbp), %xmm0
	movaps	%xmm0, -5216(%rbp)
	movdqa	-5232(%rbp), %xmm1
	movdqa	-5216(%rbp), %xmm0
	paddd	%xmm1, %xmm0
	movaps	%xmm0, -7536(%rbp)
	movdqa	-7776(%rbp), %xmm0
	movaps	%xmm0, -5264(%rbp)
	movdqa	-7680(%rbp), %xmm0
	movaps	%xmm0, -5248(%rbp)
	movdqa	-5264(%rbp), %xmm1
	movdqa	-5248(%rbp), %xmm0
	paddd	%xmm1, %xmm0
	movaps	%xmm0, -7520(%rbp)
	movdqa	-8080(%rbp), %xmm0
	movaps	%xmm0, -5296(%rbp)
	movdqa	-9584(%rbp), %xmm0
	movaps	%xmm0, -5280(%rbp)
	movdqa	-5296(%rbp), %xmm1
	movdqa	-5280(%rbp), %xmm0
	paddd	%xmm1, %xmm0
	movaps	%xmm0, -7504(%rbp)
	movdqa	-8064(%rbp), %xmm0
	movaps	%xmm0, -5328(%rbp)
	movdqa	-9584(%rbp), %xmm0
	movaps	%xmm0, -5312(%rbp)
	movdqa	-5328(%rbp), %xmm1
	movdqa	-5312(%rbp), %xmm0
	paddd	%xmm1, %xmm0
	movaps	%xmm0, -7488(%rbp)
	movdqa	-7504(%rbp), %xmm0
	movaps	%xmm0, -5360(%rbp)
	movdqa	-7536(%rbp), %xmm0
	movaps	%xmm0, -5344(%rbp)
	movdqa	-5360(%rbp), %xmm1
	movdqa	-5344(%rbp), %xmm0
	paddd	%xmm1, %xmm0
	movaps	%xmm0, -7472(%rbp)
	movdqa	-7488(%rbp), %xmm0
	movaps	%xmm0, -5392(%rbp)
	movdqa	-7520(%rbp), %xmm0
	movaps	%xmm0, -5376(%rbp)
	movdqa	-5392(%rbp), %xmm1
	movdqa	-5376(%rbp), %xmm0
	paddd	%xmm1, %xmm0
	movaps	%xmm0, -7456(%rbp)
	movdqa	-7504(%rbp), %xmm0
	movaps	%xmm0, -5424(%rbp)
	movdqa	-7536(%rbp), %xmm0
	movaps	%xmm0, -5408(%rbp)
	movdqa	-5424(%rbp), %xmm0
	movdqa	-5408(%rbp), %xmm1
	psubd	%xmm1, %xmm0
	movaps	%xmm0, -7440(%rbp)
	movdqa	-7488(%rbp), %xmm0
	movaps	%xmm0, -5456(%rbp)
	movdqa	-7520(%rbp), %xmm0
	movaps	%xmm0, -5440(%rbp)
	movdqa	-5456(%rbp), %xmm0
	movdqa	-5440(%rbp), %xmm1
	psubd	%xmm1, %xmm0
	movaps	%xmm0, -7424(%rbp)
	movdqa	-7456(%rbp), %xmm0
	movaps	%xmm0, -5472(%rbp)
	movl	$17, -10012(%rbp)
	movdqa	-5472(%rbp), %xmm1
	movd	-10012(%rbp), %xmm0
	psrad	%xmm0, %xmm1
	movdqa	%xmm1, %xmm0
	movdqa	%xmm0, %xmm2
	movdqa	-7472(%rbp), %xmm0
	movaps	%xmm0, -5488(%rbp)
	movl	$17, -10016(%rbp)
	movdqa	-5488(%rbp), %xmm1
	movd	-10016(%rbp), %xmm0
	psrad	%xmm0, %xmm1
	movdqa	%xmm1, %xmm0
	movaps	%xmm0, -5520(%rbp)
	movaps	%xmm2, -5504(%rbp)
	movdqa	-5504(%rbp), %xmm1
	movdqa	-5520(%rbp), %xmm0
	packssdw	%xmm1, %xmm0
	movaps	%xmm0, -9568(%rbp)
	movdqa	-7424(%rbp), %xmm0
	movaps	%xmm0, -5536(%rbp)
	movl	$17, -10020(%rbp)
	movdqa	-5536(%rbp), %xmm1
	movd	-10020(%rbp), %xmm0
	psrad	%xmm0, %xmm1
	movdqa	%xmm1, %xmm0
	movdqa	%xmm0, %xmm2
	movdqa	-7440(%rbp), %xmm0
	movaps	%xmm0, -5552(%rbp)
	movl	$17, -10024(%rbp)
	movdqa	-5552(%rbp), %xmm1
	movd	-10024(%rbp), %xmm0
	psrad	%xmm0, %xmm1
	movdqa	%xmm1, %xmm0
	movaps	%xmm0, -5584(%rbp)
	movaps	%xmm2, -5568(%rbp)
	movdqa	-5568(%rbp), %xmm1
	movdqa	-5584(%rbp), %xmm0
	packssdw	%xmm1, %xmm0
	movaps	%xmm0, -9456(%rbp)
	movdqa	-8016(%rbp), %xmm0
	movaps	%xmm0, -5616(%rbp)
	movdqa	-9584(%rbp), %xmm0
	movaps	%xmm0, -5600(%rbp)
	movdqa	-5616(%rbp), %xmm1
	movdqa	-5600(%rbp), %xmm0
	paddd	%xmm1, %xmm0
	movaps	%xmm0, -7408(%rbp)
	movdqa	-8000(%rbp), %xmm0
	movaps	%xmm0, -5648(%rbp)
	movdqa	-9584(%rbp), %xmm0
	movaps	%xmm0, -5632(%rbp)
	movdqa	-5648(%rbp), %xmm1
	movdqa	-5632(%rbp), %xmm0
	paddd	%xmm1, %xmm0
	movaps	%xmm0, -7392(%rbp)
	movdqa	-7408(%rbp), %xmm0
	movaps	%xmm0, -5680(%rbp)
	movdqa	-7568(%rbp), %xmm0
	movaps	%xmm0, -5664(%rbp)
	movdqa	-5680(%rbp), %xmm1
	movdqa	-5664(%rbp), %xmm0
	paddd	%xmm1, %xmm0
	movaps	%xmm0, -7376(%rbp)
	movdqa	-7392(%rbp), %xmm0
	movaps	%xmm0, -5712(%rbp)
	movdqa	-7552(%rbp), %xmm0
	movaps	%xmm0, -5696(%rbp)
	movdqa	-5712(%rbp), %xmm1
	movdqa	-5696(%rbp), %xmm0
	paddd	%xmm1, %xmm0
	movaps	%xmm0, -7360(%rbp)
	movdqa	-7408(%rbp), %xmm0
	movaps	%xmm0, -5744(%rbp)
	movdqa	-7568(%rbp), %xmm0
	movaps	%xmm0, -5728(%rbp)
	movdqa	-5744(%rbp), %xmm0
	movdqa	-5728(%rbp), %xmm1
	psubd	%xmm1, %xmm0
	movaps	%xmm0, -7344(%rbp)
	movdqa	-7392(%rbp), %xmm0
	movaps	%xmm0, -5776(%rbp)
	movdqa	-7552(%rbp), %xmm0
	movaps	%xmm0, -5760(%rbp)
	movdqa	-5776(%rbp), %xmm0
	movdqa	-5760(%rbp), %xmm1
	psubd	%xmm1, %xmm0
	movaps	%xmm0, -7328(%rbp)
	movdqa	-7360(%rbp), %xmm0
	movaps	%xmm0, -5792(%rbp)
	movl	$17, -10028(%rbp)
	movdqa	-5792(%rbp), %xmm1
	movd	-10028(%rbp), %xmm0
	psrad	%xmm0, %xmm1
	movdqa	%xmm1, %xmm0
	movdqa	%xmm0, %xmm2
	movdqa	-7376(%rbp), %xmm0
	movaps	%xmm0, -5808(%rbp)
	movl	$17, -10032(%rbp)
	movdqa	-5808(%rbp), %xmm1
	movd	-10032(%rbp), %xmm0
	psrad	%xmm0, %xmm1
	movdqa	%xmm1, %xmm0
	movaps	%xmm0, -5840(%rbp)
	movaps	%xmm2, -5824(%rbp)
	movdqa	-5824(%rbp), %xmm1
	movdqa	-5840(%rbp), %xmm0
	packssdw	%xmm1, %xmm0
	movaps	%xmm0, -9552(%rbp)
	movdqa	-7328(%rbp), %xmm0
	movaps	%xmm0, -5856(%rbp)
	movl	$17, -10036(%rbp)
	movdqa	-5856(%rbp), %xmm1
	movd	-10036(%rbp), %xmm0
	psrad	%xmm0, %xmm1
	movdqa	%xmm1, %xmm0
	movdqa	%xmm0, %xmm2
	movdqa	-7344(%rbp), %xmm0
	movaps	%xmm0, -5872(%rbp)
	movl	$17, -10040(%rbp)
	movdqa	-5872(%rbp), %xmm1
	movd	-10040(%rbp), %xmm0
	psrad	%xmm0, %xmm1
	movdqa	%xmm1, %xmm0
	movaps	%xmm0, -5904(%rbp)
	movaps	%xmm2, -5888(%rbp)
	movdqa	-5888(%rbp), %xmm1
	movdqa	-5904(%rbp), %xmm0
	packssdw	%xmm1, %xmm0
	movaps	%xmm0, -9472(%rbp)
	movdqa	-7984(%rbp), %xmm0
	movaps	%xmm0, -5936(%rbp)
	movdqa	-9584(%rbp), %xmm0
	movaps	%xmm0, -5920(%rbp)
	movdqa	-5936(%rbp), %xmm1
	movdqa	-5920(%rbp), %xmm0
	paddd	%xmm1, %xmm0
	movaps	%xmm0, -7312(%rbp)
	movdqa	-7968(%rbp), %xmm0
	movaps	%xmm0, -5968(%rbp)
	movdqa	-9584(%rbp), %xmm0
	movaps	%xmm0, -5952(%rbp)
	movdqa	-5968(%rbp), %xmm1
	movdqa	-5952(%rbp), %xmm0
	paddd	%xmm1, %xmm0
	movaps	%xmm0, -7296(%rbp)
	movdqa	-7312(%rbp), %xmm0
	movaps	%xmm0, -6000(%rbp)
	movdqa	-7600(%rbp), %xmm0
	movaps	%xmm0, -5984(%rbp)
	movdqa	-6000(%rbp), %xmm1
	movdqa	-5984(%rbp), %xmm0
	paddd	%xmm1, %xmm0
	movaps	%xmm0, -7280(%rbp)
	movdqa	-7296(%rbp), %xmm0
	movaps	%xmm0, -6032(%rbp)
	movdqa	-7584(%rbp), %xmm0
	movaps	%xmm0, -6016(%rbp)
	movdqa	-6032(%rbp), %xmm1
	movdqa	-6016(%rbp), %xmm0
	paddd	%xmm1, %xmm0
	movaps	%xmm0, -7264(%rbp)
	movdqa	-7312(%rbp), %xmm0
	movaps	%xmm0, -6064(%rbp)
	movdqa	-7600(%rbp), %xmm0
	movaps	%xmm0, -6048(%rbp)
	movdqa	-6064(%rbp), %xmm0
	movdqa	-6048(%rbp), %xmm1
	psubd	%xmm1, %xmm0
	movaps	%xmm0, -7248(%rbp)
	movdqa	-7296(%rbp), %xmm0
	movaps	%xmm0, -6096(%rbp)
	movdqa	-7584(%rbp), %xmm0
	movaps	%xmm0, -6080(%rbp)
	movdqa	-6096(%rbp), %xmm0
	movdqa	-6080(%rbp), %xmm1
	psubd	%xmm1, %xmm0
	movaps	%xmm0, -7232(%rbp)
	movdqa	-7264(%rbp), %xmm0
	movaps	%xmm0, -6112(%rbp)
	movl	$17, -10044(%rbp)
	movdqa	-6112(%rbp), %xmm1
	movd	-10044(%rbp), %xmm0
	psrad	%xmm0, %xmm1
	movdqa	%xmm1, %xmm0
	movdqa	%xmm0, %xmm2
	movdqa	-7280(%rbp), %xmm0
	movaps	%xmm0, -6128(%rbp)
	movl	$17, -10048(%rbp)
	movdqa	-6128(%rbp), %xmm1
	movd	-10048(%rbp), %xmm0
	psrad	%xmm0, %xmm1
	movdqa	%xmm1, %xmm0
	movaps	%xmm0, -6160(%rbp)
	movaps	%xmm2, -6144(%rbp)
	movdqa	-6144(%rbp), %xmm1
	movdqa	-6160(%rbp), %xmm0
	packssdw	%xmm1, %xmm0
	movaps	%xmm0, -9536(%rbp)
	movdqa	-7232(%rbp), %xmm0
	movaps	%xmm0, -6176(%rbp)
	movl	$17, -10052(%rbp)
	movdqa	-6176(%rbp), %xmm1
	movd	-10052(%rbp), %xmm0
	psrad	%xmm0, %xmm1
	movdqa	%xmm1, %xmm0
	movdqa	%xmm0, %xmm2
	movdqa	-7248(%rbp), %xmm0
	movaps	%xmm0, -6192(%rbp)
	movl	$17, -10056(%rbp)
	movdqa	-6192(%rbp), %xmm1
	movd	-10056(%rbp), %xmm0
	psrad	%xmm0, %xmm1
	movdqa	%xmm1, %xmm0
	movaps	%xmm0, -6224(%rbp)
	movaps	%xmm2, -6208(%rbp)
	movdqa	-6208(%rbp), %xmm1
	movdqa	-6224(%rbp), %xmm0
	packssdw	%xmm1, %xmm0
	movaps	%xmm0, -9488(%rbp)
	movdqa	-8048(%rbp), %xmm0
	movaps	%xmm0, -6256(%rbp)
	movdqa	-9584(%rbp), %xmm0
	movaps	%xmm0, -6240(%rbp)
	movdqa	-6256(%rbp), %xmm1
	movdqa	-6240(%rbp), %xmm0
	paddd	%xmm1, %xmm0
	movaps	%xmm0, -7216(%rbp)
	movdqa	-8032(%rbp), %xmm0
	movaps	%xmm0, -6288(%rbp)
	movdqa	-9584(%rbp), %xmm0
	movaps	%xmm0, -6272(%rbp)
	movdqa	-6288(%rbp), %xmm1
	movdqa	-6272(%rbp), %xmm0
	paddd	%xmm1, %xmm0
	movaps	%xmm0, -7200(%rbp)
	movdqa	-7216(%rbp), %xmm0
	movaps	%xmm0, -6320(%rbp)
	movdqa	-7632(%rbp), %xmm0
	movaps	%xmm0, -6304(%rbp)
	movdqa	-6320(%rbp), %xmm1
	movdqa	-6304(%rbp), %xmm0
	paddd	%xmm1, %xmm0
	movaps	%xmm0, -7184(%rbp)
	movdqa	-7200(%rbp), %xmm0
	movaps	%xmm0, -6352(%rbp)
	movdqa	-7616(%rbp), %xmm0
	movaps	%xmm0, -6336(%rbp)
	movdqa	-6352(%rbp), %xmm1
	movdqa	-6336(%rbp), %xmm0
	paddd	%xmm1, %xmm0
	movaps	%xmm0, -7168(%rbp)
	movdqa	-7216(%rbp), %xmm0
	movaps	%xmm0, -6384(%rbp)
	movdqa	-7632(%rbp), %xmm0
	movaps	%xmm0, -6368(%rbp)
	movdqa	-6384(%rbp), %xmm0
	movdqa	-6368(%rbp), %xmm1
	psubd	%xmm1, %xmm0
	movaps	%xmm0, -7152(%rbp)
	movdqa	-7200(%rbp), %xmm0
	movaps	%xmm0, -6416(%rbp)
	movdqa	-7616(%rbp), %xmm0
	movaps	%xmm0, -6400(%rbp)
	movdqa	-6416(%rbp), %xmm0
	movdqa	-6400(%rbp), %xmm1
	psubd	%xmm1, %xmm0
	movaps	%xmm0, -7136(%rbp)
	movdqa	-7168(%rbp), %xmm0
	movaps	%xmm0, -6432(%rbp)
	movl	$17, -10060(%rbp)
	movdqa	-6432(%rbp), %xmm1
	movd	-10060(%rbp), %xmm0
	psrad	%xmm0, %xmm1
	movdqa	%xmm1, %xmm0
	movdqa	%xmm0, %xmm2
	movdqa	-7184(%rbp), %xmm0
	movaps	%xmm0, -6448(%rbp)
	movl	$17, -10064(%rbp)
	movdqa	-6448(%rbp), %xmm1
	movd	-10064(%rbp), %xmm0
	psrad	%xmm0, %xmm1
	movdqa	%xmm1, %xmm0
	movaps	%xmm0, -6480(%rbp)
	movaps	%xmm2, -6464(%rbp)
	movdqa	-6464(%rbp), %xmm1
	movdqa	-6480(%rbp), %xmm0
	packssdw	%xmm1, %xmm0
	movaps	%xmm0, -9520(%rbp)
	movdqa	-7136(%rbp), %xmm0
	movaps	%xmm0, -6496(%rbp)
	movl	$17, -10068(%rbp)
	movdqa	-6496(%rbp), %xmm1
	movd	-10068(%rbp), %xmm0
	psrad	%xmm0, %xmm1
	movdqa	%xmm1, %xmm0
	movdqa	%xmm0, %xmm2
	movdqa	-7152(%rbp), %xmm0
	movaps	%xmm0, -6512(%rbp)
	movl	$17, -10072(%rbp)
	movdqa	-6512(%rbp), %xmm1
	movd	-10072(%rbp), %xmm0
	psrad	%xmm0, %xmm1
	movdqa	%xmm1, %xmm0
	movaps	%xmm0, -6544(%rbp)
	movaps	%xmm2, -6528(%rbp)
	movdqa	-6528(%rbp), %xmm1
	movdqa	-6544(%rbp), %xmm0
	packssdw	%xmm1, %xmm0
	movaps	%xmm0, -9504(%rbp)
	movdqa	-9568(%rbp), %xmm0
	movaps	%xmm0, -6576(%rbp)
	movdqa	-9552(%rbp), %xmm0
	movaps	%xmm0, -6560(%rbp)
	movdqa	-6560(%rbp), %xmm1
	movdqa	-6576(%rbp), %xmm0
	packuswb	%xmm1, %xmm0
	movaps	%xmm0, -7120(%rbp)
	movdqa	-9536(%rbp), %xmm0
	movaps	%xmm0, -6608(%rbp)
	movdqa	-9520(%rbp), %xmm0
	movaps	%xmm0, -6592(%rbp)
	movdqa	-6592(%rbp), %xmm1
	movdqa	-6608(%rbp), %xmm0
	packuswb	%xmm1, %xmm0
	movaps	%xmm0, -7104(%rbp)
	movdqa	-9504(%rbp), %xmm0
	movaps	%xmm0, -6640(%rbp)
	movdqa	-9488(%rbp), %xmm0
	movaps	%xmm0, -6624(%rbp)
	movdqa	-6624(%rbp), %xmm1
	movdqa	-6640(%rbp), %xmm0
	packuswb	%xmm1, %xmm0
	movaps	%xmm0, -7088(%rbp)
	movdqa	-9472(%rbp), %xmm0
	movaps	%xmm0, -6672(%rbp)
	movdqa	-9456(%rbp), %xmm0
	movaps	%xmm0, -6656(%rbp)
	movdqa	-6656(%rbp), %xmm1
	movdqa	-6672(%rbp), %xmm0
	packuswb	%xmm1, %xmm0
	movaps	%xmm0, -7072(%rbp)
	movdqa	-7120(%rbp), %xmm0
	movaps	%xmm0, -8288(%rbp)
	movdqa	-7120(%rbp), %xmm0
	movaps	%xmm0, -6704(%rbp)
	movdqa	-7088(%rbp), %xmm0
	movaps	%xmm0, -6688(%rbp)
	movdqa	-6688(%rbp), %xmm1
	movdqa	-6704(%rbp), %xmm0
	punpcklbw	%xmm1, %xmm0
	movaps	%xmm0, -7120(%rbp)
	movdqa	-8288(%rbp), %xmm0
	movaps	%xmm0, -6736(%rbp)
	movdqa	-7088(%rbp), %xmm0
	movaps	%xmm0, -6720(%rbp)
	movdqa	-6720(%rbp), %xmm1
	movdqa	-6736(%rbp), %xmm0
	punpckhbw	%xmm1, %xmm0
	movaps	%xmm0, -7088(%rbp)
	movdqa	-7104(%rbp), %xmm0
	movaps	%xmm0, -8288(%rbp)
	movdqa	-7104(%rbp), %xmm0
	movaps	%xmm0, -6768(%rbp)
	movdqa	-7072(%rbp), %xmm0
	movaps	%xmm0, -6752(%rbp)
	movdqa	-6752(%rbp), %xmm1
	movdqa	-6768(%rbp), %xmm0
	punpcklbw	%xmm1, %xmm0
	movaps	%xmm0, -7104(%rbp)
	movdqa	-8288(%rbp), %xmm0
	movaps	%xmm0, -6800(%rbp)
	movdqa	-7072(%rbp), %xmm0
	movaps	%xmm0, -6784(%rbp)
	movdqa	-6784(%rbp), %xmm1
	movdqa	-6800(%rbp), %xmm0
	punpckhbw	%xmm1, %xmm0
	movaps	%xmm0, -7072(%rbp)
	movdqa	-7120(%rbp), %xmm0
	movaps	%xmm0, -8288(%rbp)
	movdqa	-7120(%rbp), %xmm0
	movaps	%xmm0, -6832(%rbp)
	movdqa	-7104(%rbp), %xmm0
	movaps	%xmm0, -6816(%rbp)
	movdqa	-6816(%rbp), %xmm1
	movdqa	-6832(%rbp), %xmm0
	punpcklbw	%xmm1, %xmm0
	movaps	%xmm0, -7120(%rbp)
	movdqa	-8288(%rbp), %xmm0
	movaps	%xmm0, -6864(%rbp)
	movdqa	-7104(%rbp), %xmm0
	movaps	%xmm0, -6848(%rbp)
	movdqa	-6848(%rbp), %xmm1
	movdqa	-6864(%rbp), %xmm0
	punpckhbw	%xmm1, %xmm0
	movaps	%xmm0, -7104(%rbp)
	movdqa	-7088(%rbp), %xmm0
	movaps	%xmm0, -8288(%rbp)
	movdqa	-7088(%rbp), %xmm0
	movaps	%xmm0, -6896(%rbp)
	movdqa	-7072(%rbp), %xmm0
	movaps	%xmm0, -6880(%rbp)
	movdqa	-6880(%rbp), %xmm1
	movdqa	-6896(%rbp), %xmm0
	punpcklbw	%xmm1, %xmm0
	movaps	%xmm0, -7088(%rbp)
	movdqa	-8288(%rbp), %xmm0
	movaps	%xmm0, -6928(%rbp)
	movdqa	-7072(%rbp), %xmm0
	movaps	%xmm0, -6912(%rbp)
	movdqa	-6912(%rbp), %xmm1
	movdqa	-6928(%rbp), %xmm0
	punpckhbw	%xmm1, %xmm0
	movaps	%xmm0, -7072(%rbp)
	movdqa	-7120(%rbp), %xmm0
	movaps	%xmm0, -8288(%rbp)
	movdqa	-7120(%rbp), %xmm0
	movaps	%xmm0, -6960(%rbp)
	movdqa	-7088(%rbp), %xmm0
	movaps	%xmm0, -6944(%rbp)
	movdqa	-6944(%rbp), %xmm1
	movdqa	-6960(%rbp), %xmm0
	punpcklbw	%xmm1, %xmm0
	movaps	%xmm0, -7120(%rbp)
	movdqa	-8288(%rbp), %xmm0
	movaps	%xmm0, -6992(%rbp)
	movdqa	-7088(%rbp), %xmm0
	movaps	%xmm0, -6976(%rbp)
	movdqa	-6976(%rbp), %xmm1
	movdqa	-6992(%rbp), %xmm0
	punpckhbw	%xmm1, %xmm0
	movaps	%xmm0, -7088(%rbp)
	movdqa	-7104(%rbp), %xmm0
	movaps	%xmm0, -8288(%rbp)
	movdqa	-7104(%rbp), %xmm0
	movaps	%xmm0, -7024(%rbp)
	movdqa	-7072(%rbp), %xmm0
	movaps	%xmm0, -7008(%rbp)
	movdqa	-7008(%rbp), %xmm1
	movdqa	-7024(%rbp), %xmm0
	punpcklbw	%xmm1, %xmm0
	movaps	%xmm0, -7104(%rbp)
	movdqa	-8288(%rbp), %xmm0
	movaps	%xmm0, -7056(%rbp)
	movdqa	-7072(%rbp), %xmm0
	movaps	%xmm0, -7040(%rbp)
	movdqa	-7040(%rbp), %xmm1
	movdqa	-7056(%rbp), %xmm0
	punpckhbw	%xmm1, %xmm0
	movaps	%xmm0, -7072(%rbp)
	movq	-10344(%rbp), %rax
	movq	%rax, -9816(%rbp)
	movdqa	-7120(%rbp), %xmm0
	movaps	%xmm0, -9744(%rbp)
	movq	-9744(%rbp), %rax
	movq	%rax, %rdx
	movq	-9816(%rbp), %rax
	movq	%rdx, (%rax)
	nop
	movl	-10348(%rbp), %eax
	cltq
	addq	%rax, -10344(%rbp)
	movdqa	-7120(%rbp), %xmm0
	pshufd	$78, %xmm0, %xmm0
	movq	-10344(%rbp), %rax
	movq	%rax, -9824(%rbp)
	movaps	%xmm0, -9744(%rbp)
	movq	-9744(%rbp), %rax
	movq	%rax, %rdx
	movq	-9824(%rbp), %rax
	movq	%rdx, (%rax)
	nop
	movl	-10348(%rbp), %eax
	cltq
	addq	%rax, -10344(%rbp)
	movq	-10344(%rbp), %rax
	movq	%rax, -9832(%rbp)
	movdqa	-7088(%rbp), %xmm0
	movaps	%xmm0, -9744(%rbp)
	movq	-9744(%rbp), %rax
	movq	%rax, %rdx
	movq	-9832(%rbp), %rax
	movq	%rdx, (%rax)
	nop
	movl	-10348(%rbp), %eax
	cltq
	addq	%rax, -10344(%rbp)
	movdqa	-7088(%rbp), %xmm0
	pshufd	$78, %xmm0, %xmm0
	movq	-10344(%rbp), %rax
	movq	%rax, -9840(%rbp)
	movaps	%xmm0, -9744(%rbp)
	movq	-9744(%rbp), %rax
	movq	%rax, %rdx
	movq	-9840(%rbp), %rax
	movq	%rdx, (%rax)
	nop
	movl	-10348(%rbp), %eax
	cltq
	addq	%rax, -10344(%rbp)
	movq	-10344(%rbp), %rax
	movq	%rax, -9848(%rbp)
	movdqa	-7104(%rbp), %xmm0
	movaps	%xmm0, -9744(%rbp)
	movq	-9744(%rbp), %rax
	movq	%rax, %rdx
	movq	-9848(%rbp), %rax
	movq	%rdx, (%rax)
	nop
	movl	-10348(%rbp), %eax
	cltq
	addq	%rax, -10344(%rbp)
	movdqa	-7104(%rbp), %xmm0
	pshufd	$78, %xmm0, %xmm0
	movq	-10344(%rbp), %rax
	movq	%rax, -9856(%rbp)
	movaps	%xmm0, -9744(%rbp)
	movq	-9744(%rbp), %rax
	movq	%rax, %rdx
	movq	-9856(%rbp), %rax
	movq	%rdx, (%rax)
	nop
	movl	-10348(%rbp), %eax
	cltq
	addq	%rax, -10344(%rbp)
	movq	-10344(%rbp), %rax
	movq	%rax, -9864(%rbp)
	movdqa	-7072(%rbp), %xmm0
	movaps	%xmm0, -9744(%rbp)
	movq	-9744(%rbp), %rax
	movq	%rax, %rdx
	movq	-9864(%rbp), %rax
	movq	%rdx, (%rax)
	nop
	movl	-10348(%rbp), %eax
	cltq
	addq	%rax, -10344(%rbp)
	movdqa	-7072(%rbp), %xmm0
	pshufd	$78, %xmm0, %xmm0
	movq	-10344(%rbp), %rax
	movq	%rax, -9872(%rbp)
	movaps	%xmm0, -9744(%rbp)
	movq	-9744(%rbp), %rax
	movq	%rax, %rdx
	movq	-9872(%rbp), %rax
	movq	%rdx, (%rax)
	nop
	nop
	movq	-8(%rbp), %rax
	xorq	%fs:40, %rax
	je	.L759
	call	__stack_chk_fail@PLT
.L759:
	leave
	.cfi_def_cfa 7, 8
	ret
	.cfi_endproc
.LFE585:
	.size	stbi__idct_simd, .-stbi__idct_simd
	.type	stbi__get_marker, @function
stbi__get_marker:
.LFB586:
	.cfi_startproc
	endbr64
	pushq	%rbp
	.cfi_def_cfa_offset 16
	.cfi_offset 6, -16
	movq	%rsp, %rbp
	.cfi_def_cfa_register 6
	subq	$32, %rsp
	movq	%rdi, -24(%rbp)
	movq	-24(%rbp), %rax
	movzbl	18472(%rax), %eax
	cmpb	$-1, %al
	je	.L761
	movq	-24(%rbp), %rax
	movzbl	18472(%rax), %eax
	movb	%al, -1(%rbp)
	movq	-24(%rbp), %rax
	movb	$-1, 18472(%rax)
	movzbl	-1(%rbp), %eax
	jmp	.L762
.L761:
	movq	-24(%rbp), %rax
	movq	(%rax), %rax
	movq	%rax, %rdi
	call	stbi__get8
	movb	%al, -1(%rbp)
	cmpb	$-1, -1(%rbp)
	je	.L764
	movl	$-1, %eax
	jmp	.L762
.L765:
	movq	-24(%rbp), %rax
	movq	(%rax), %rax
	movq	%rax, %rdi
	call	stbi__get8
	movb	%al, -1(%rbp)
.L764:
	cmpb	$-1, -1(%rbp)
	je	.L765
	movzbl	-1(%rbp), %eax
.L762:
	leave
	.cfi_def_cfa 7, 8
	ret
	.cfi_endproc
.LFE586:
	.size	stbi__get_marker, .-stbi__get_marker
	.type	stbi__jpeg_reset, @function
stbi__jpeg_reset:
.LFB587:
	.cfi_startproc
	endbr64
	pushq	%rbp
	.cfi_def_cfa_offset 16
	.cfi_offset 6, -16
	movq	%rsp, %rbp
	.cfi_def_cfa_register 6
	movq	%rdi, -8(%rbp)
	movq	-8(%rbp), %rax
	movl	$0, 18468(%rax)
	movq	-8(%rbp), %rax
	movl	$0, 18464(%rax)
	movq	-8(%rbp), %rax
	movl	$0, 18476(%rax)
	movq	-8(%rbp), %rax
	movl	$0, 18392(%rax)
	movq	-8(%rbp), %rax
	movl	18392(%rax), %edx
	movq	-8(%rbp), %rax
	movl	%edx, 18296(%rax)
	movq	-8(%rbp), %rax
	movl	18296(%rax), %edx
	movq	-8(%rbp), %rax
	movl	%edx, 18200(%rax)
	movq	-8(%rbp), %rax
	movl	18200(%rax), %edx
	movq	-8(%rbp), %rax
	movl	%edx, 18104(%rax)
	movq	-8(%rbp), %rax
	movb	$-1, 18472(%rax)
	movq	-8(%rbp), %rax
	movl	18536(%rax), %eax
	testl	%eax, %eax
	je	.L767
	movq	-8(%rbp), %rax
	movl	18536(%rax), %eax
	jmp	.L768
.L767:
	movl	$2147483647, %eax
.L768:
	movq	-8(%rbp), %rdx
	movl	%eax, 18540(%rdx)
	movq	-8(%rbp), %rax
	movl	$0, 18500(%rax)
	nop
	popq	%rbp
	.cfi_def_cfa 7, 8
	ret
	.cfi_endproc
.LFE587:
	.size	stbi__jpeg_reset, .-stbi__jpeg_reset
	.type	stbi__parse_entropy_coded_data, @function
stbi__parse_entropy_coded_data:
.LFB588:
	.cfi_startproc
	endbr64
	pushq	%rbp
	.cfi_def_cfa_offset 16
	.cfi_offset 6, -16
	movq	%rsp, %rbp
	.cfi_def_cfa_register 6
	subq	$304, %rsp
	movq	%rdi, -296(%rbp)
	movq	%fs:40, %rax
	movq	%rax, -8(%rbp)
	xorl	%eax, %eax
	movq	-296(%rbp), %rax
	movq	%rax, %rdi
	call	stbi__jpeg_reset
	movq	-296(%rbp), %rax
	movl	18480(%rax), %eax
	testl	%eax, %eax
	jne	.L770
	movq	-296(%rbp), %rax
	movl	18516(%rax), %eax
	cmpl	$1, %eax
	jne	.L771
	movq	-296(%rbp), %rax
	movl	18520(%rax), %eax
	movl	%eax, -176(%rbp)
	movq	-296(%rbp), %rcx
	movl	-176(%rbp), %eax
	movslq	%eax, %rdx
	movq	%rdx, %rax
	addq	%rax, %rax
	addq	%rdx, %rax
	salq	$5, %rax
	addq	%rcx, %rax
	addq	$18108, %rax
	movl	(%rax), %eax
	addl	$7, %eax
	sarl	$3, %eax
	movl	%eax, -172(%rbp)
	movq	-296(%rbp), %rcx
	movl	-176(%rbp), %eax
	movslq	%eax, %rdx
	movq	%rdx, %rax
	addq	%rax, %rax
	addq	%rdx, %rax
	salq	$5, %rax
	addq	%rcx, %rax
	addq	$18112, %rax
	movl	(%rax), %eax
	addl	$7, %eax
	sarl	$3, %eax
	movl	%eax, -168(%rbp)
	movl	$0, -272(%rbp)
	jmp	.L772
.L781:
	movl	$0, -276(%rbp)
	jmp	.L773
.L780:
	movq	-296(%rbp), %rcx
	movl	-176(%rbp), %eax
	movslq	%eax, %rdx
	movq	%rdx, %rax
	addq	%rax, %rax
	addq	%rdx, %rax
	salq	$5, %rax
	addq	%rcx, %rax
	addq	$18100, %rax
	movl	(%rax), %eax
	movl	%eax, -164(%rbp)
	movq	-296(%rbp), %rcx
	movl	-176(%rbp), %eax
	movslq	%eax, %rdx
	movq	%rdx, %rax
	addq	%rax, %rax
	addq	%rdx, %rax
	salq	$5, %rax
	addq	%rcx, %rax
	addq	$18092, %rax
	movl	(%rax), %eax
	cltq
	addq	$105, %rax
	salq	$7, %rax
	movq	%rax, %rdx
	movq	-296(%rbp), %rax
	addq	%rdx, %rax
	leaq	8(%rax), %rdi
	movl	-164(%rbp), %eax
	cltq
	salq	$10, %rax
	leaq	13952(%rax), %rdx
	movq	-296(%rbp), %rax
	addq	%rdx, %rax
	leaq	8(%rax), %r10
	movq	-296(%rbp), %rax
	leaq	6728(%rax), %rdx
	movl	-164(%rbp), %eax
	cltq
	imulq	$1680, %rax, %rax
	leaq	(%rdx,%rax), %rcx
	movq	-296(%rbp), %rax
	leaq	8(%rax), %r8
	movq	-296(%rbp), %rsi
	movl	-176(%rbp), %eax
	movslq	%eax, %rdx
	movq	%rdx, %rax
	addq	%rax, %rax
	addq	%rdx, %rax
	salq	$5, %rax
	addq	%rsi, %rax
	addq	$18096, %rax
	movl	(%rax), %eax
	cltq
	imulq	$1680, %rax, %rax
	leaq	(%r8,%rax), %rdx
	movl	-176(%rbp), %r8d
	leaq	-144(%rbp), %rsi
	movq	-296(%rbp), %rax
	subq	$8, %rsp
	pushq	%rdi
	movl	%r8d, %r9d
	movq	%r10, %r8
	movq	%rax, %rdi
	call	stbi__jpeg_decode_block
	addq	$16, %rsp
	testl	%eax, %eax
	jne	.L774
	movl	$0, %eax
	jmp	.L782
.L774:
	movq	-296(%rbp), %rax
	movq	18544(%rax), %r8
	movq	-296(%rbp), %rcx
	movl	-176(%rbp), %eax
	movslq	%eax, %rdx
	movq	%rdx, %rax
	addq	%rax, %rax
	addq	%rdx, %rax
	salq	$5, %rax
	addq	%rcx, %rax
	addq	$18116, %rax
	movl	(%rax), %ecx
	movq	-296(%rbp), %rsi
	movl	-176(%rbp), %eax
	movslq	%eax, %rdx
	movq	%rdx, %rax
	addq	%rax, %rax
	addq	%rdx, %rax
	salq	$5, %rax
	addq	%rsi, %rax
	addq	$18128, %rax
	movq	(%rax), %rsi
	movq	-296(%rbp), %rdi
	movl	-176(%rbp), %eax
	movslq	%eax, %rdx
	movq	%rdx, %rax
	addq	%rax, %rax
	addq	%rdx, %rax
	salq	$5, %rax
	addq	%rdi, %rax
	addq	$18116, %rax
	movl	(%rax), %eax
	imull	-272(%rbp), %eax
	sall	$3, %eax
	movslq	%eax, %rdx
	movl	-276(%rbp), %eax
	sall	$3, %eax
	cltq
	addq	%rdx, %rax
	leaq	(%rsi,%rax), %rdi
	leaq	-144(%rbp), %rax
	movq	%rax, %rdx
	movl	%ecx, %esi
	call	*%r8
	movq	-296(%rbp), %rax
	movl	18540(%rax), %eax
	leal	-1(%rax), %edx
	movq	-296(%rbp), %rax
	movl	%edx, 18540(%rax)
	movq	-296(%rbp), %rax
	movl	18540(%rax), %eax
	testl	%eax, %eax
	jg	.L776
	movq	-296(%rbp), %rax
	movl	18468(%rax), %eax
	cmpl	$23, %eax
	jg	.L777
	movq	-296(%rbp), %rax
	movq	%rax, %rdi
	call	stbi__grow_buffer_unsafe
.L777:
	movq	-296(%rbp), %rax
	movzbl	18472(%rax), %eax
	cmpb	$-49, %al
	jbe	.L778
	movq	-296(%rbp), %rax
	movzbl	18472(%rax), %eax
	cmpb	$-41, %al
	jbe	.L779
.L778:
	movl	$1, %eax
	jmp	.L782
.L779:
	movq	-296(%rbp), %rax
	movq	%rax, %rdi
	call	stbi__jpeg_reset
.L776:
	addl	$1, -276(%rbp)
.L773:
	movl	-276(%rbp), %eax
	cmpl	-172(%rbp), %eax
	jl	.L780
	addl	$1, -272(%rbp)
.L772:
	movl	-272(%rbp), %eax
	cmpl	-168(%rbp), %eax
	jl	.L781
	movl	$1, %eax
	jmp	.L782
.L771:
	movl	$0, -264(%rbp)
	jmp	.L783
.L798:
	movl	$0, -268(%rbp)
	jmp	.L784
.L797:
	movl	$0, -260(%rbp)
	jmp	.L785
.L792:
	movq	-296(%rbp), %rax
	movl	-260(%rbp), %edx
	movslq	%edx, %rdx
	addq	$4628, %rdx
	movl	8(%rax,%rdx,4), %eax
	movl	%eax, -192(%rbp)
	movl	$0, -252(%rbp)
	jmp	.L786
.L791:
	movl	$0, -256(%rbp)
	jmp	.L787
.L790:
	movq	-296(%rbp), %rcx
	movl	-192(%rbp), %eax
	movslq	%eax, %rdx
	movq	%rdx, %rax
	addq	%rax, %rax
	addq	%rdx, %rax
	salq	$5, %rax
	addq	%rcx, %rax
	addq	$18084, %rax
	movl	(%rax), %eax
	imull	-268(%rbp), %eax
	movl	%eax, %edx
	movl	-256(%rbp), %eax
	addl	%edx, %eax
	sall	$3, %eax
	movl	%eax, -188(%rbp)
	movq	-296(%rbp), %rcx
	movl	-192(%rbp), %eax
	movslq	%eax, %rdx
	movq	%rdx, %rax
	addq	%rax, %rax
	addq	%rdx, %rax
	salq	$5, %rax
	addq	%rcx, %rax
	addq	$18088, %rax
	movl	(%rax), %eax
	imull	-264(%rbp), %eax
	movl	%eax, %edx
	movl	-252(%rbp), %eax
	addl	%edx, %eax
	sall	$3, %eax
	movl	%eax, -184(%rbp)
	movq	-296(%rbp), %rcx
	movl	-192(%rbp), %eax
	movslq	%eax, %rdx
	movq	%rdx, %rax
	addq	%rax, %rax
	addq	%rdx, %rax
	salq	$5, %rax
	addq	%rcx, %rax
	addq	$18100, %rax
	movl	(%rax), %eax
	movl	%eax, -180(%rbp)
	movq	-296(%rbp), %rcx
	movl	-192(%rbp), %eax
	movslq	%eax, %rdx
	movq	%rdx, %rax
	addq	%rax, %rax
	addq	%rdx, %rax
	salq	$5, %rax
	addq	%rcx, %rax
	addq	$18092, %rax
	movl	(%rax), %eax
	cltq
	addq	$105, %rax
	salq	$7, %rax
	movq	%rax, %rdx
	movq	-296(%rbp), %rax
	addq	%rdx, %rax
	leaq	8(%rax), %rdi
	movl	-180(%rbp), %eax
	cltq
	salq	$10, %rax
	leaq	13952(%rax), %rdx
	movq	-296(%rbp), %rax
	addq	%rdx, %rax
	leaq	8(%rax), %r10
	movq	-296(%rbp), %rax
	leaq	6728(%rax), %rdx
	movl	-180(%rbp), %eax
	cltq
	imulq	$1680, %rax, %rax
	leaq	(%rdx,%rax), %rcx
	movq	-296(%rbp), %rax
	leaq	8(%rax), %r8
	movq	-296(%rbp), %rsi
	movl	-192(%rbp), %eax
	movslq	%eax, %rdx
	movq	%rdx, %rax
	addq	%rax, %rax
	addq	%rdx, %rax
	salq	$5, %rax
	addq	%rsi, %rax
	addq	$18096, %rax
	movl	(%rax), %eax
	cltq
	imulq	$1680, %rax, %rax
	leaq	(%r8,%rax), %rdx
	movl	-192(%rbp), %r8d
	leaq	-144(%rbp), %rsi
	movq	-296(%rbp), %rax
	subq	$8, %rsp
	pushq	%rdi
	movl	%r8d, %r9d
	movq	%r10, %r8
	movq	%rax, %rdi
	call	stbi__jpeg_decode_block
	addq	$16, %rsp
	testl	%eax, %eax
	jne	.L788
	movl	$0, %eax
	jmp	.L782
.L788:
	movq	-296(%rbp), %rax
	movq	18544(%rax), %r8
	movq	-296(%rbp), %rcx
	movl	-192(%rbp), %eax
	movslq	%eax, %rdx
	movq	%rdx, %rax
	addq	%rax, %rax
	addq	%rdx, %rax
	salq	$5, %rax
	addq	%rcx, %rax
	addq	$18116, %rax
	movl	(%rax), %ecx
	movq	-296(%rbp), %rsi
	movl	-192(%rbp), %eax
	movslq	%eax, %rdx
	movq	%rdx, %rax
	addq	%rax, %rax
	addq	%rdx, %rax
	salq	$5, %rax
	addq	%rsi, %rax
	addq	$18128, %rax
	movq	(%rax), %rsi
	movq	-296(%rbp), %rdi
	movl	-192(%rbp), %eax
	movslq	%eax, %rdx
	movq	%rdx, %rax
	addq	%rax, %rax
	addq	%rdx, %rax
	salq	$5, %rax
	addq	%rdi, %rax
	addq	$18116, %rax
	movl	(%rax), %eax
	imull	-184(%rbp), %eax
	movslq	%eax, %rdx
	movl	-188(%rbp), %eax
	cltq
	addq	%rdx, %rax
	leaq	(%rsi,%rax), %rdi
	leaq	-144(%rbp), %rax
	movq	%rax, %rdx
	movl	%ecx, %esi
	call	*%r8
	addl	$1, -256(%rbp)
.L787:
	movq	-296(%rbp), %rcx
	movl	-192(%rbp), %eax
	movslq	%eax, %rdx
	movq	%rdx, %rax
	addq	%rax, %rax
	addq	%rdx, %rax
	salq	$5, %rax
	addq	%rcx, %rax
	addq	$18084, %rax
	movl	(%rax), %eax
	cmpl	%eax, -256(%rbp)
	jl	.L790
	addl	$1, -252(%rbp)
.L786:
	movq	-296(%rbp), %rcx
	movl	-192(%rbp), %eax
	movslq	%eax, %rdx
	movq	%rdx, %rax
	addq	%rax, %rax
	addq	%rdx, %rax
	salq	$5, %rax
	addq	%rcx, %rax
	addq	$18088, %rax
	movl	(%rax), %eax
	cmpl	%eax, -252(%rbp)
	jl	.L791
	addl	$1, -260(%rbp)
.L785:
	movq	-296(%rbp), %rax
	movl	18516(%rax), %eax
	cmpl	%eax, -260(%rbp)
	jl	.L792
	movq	-296(%rbp), %rax
	movl	18540(%rax), %eax
	leal	-1(%rax), %edx
	movq	-296(%rbp), %rax
	movl	%edx, 18540(%rax)
	movq	-296(%rbp), %rax
	movl	18540(%rax), %eax
	testl	%eax, %eax
	jg	.L793
	movq	-296(%rbp), %rax
	movl	18468(%rax), %eax
	cmpl	$23, %eax
	jg	.L794
	movq	-296(%rbp), %rax
	movq	%rax, %rdi
	call	stbi__grow_buffer_unsafe
.L794:
	movq	-296(%rbp), %rax
	movzbl	18472(%rax), %eax
	cmpb	$-49, %al
	jbe	.L795
	movq	-296(%rbp), %rax
	movzbl	18472(%rax), %eax
	cmpb	$-41, %al
	jbe	.L796
.L795:
	movl	$1, %eax
	jmp	.L782
.L796:
	movq	-296(%rbp), %rax
	movq	%rax, %rdi
	call	stbi__jpeg_reset
.L793:
	addl	$1, -268(%rbp)
.L784:
	movq	-296(%rbp), %rax
	movl	18064(%rax), %eax
	cmpl	%eax, -268(%rbp)
	jl	.L797
	addl	$1, -264(%rbp)
.L783:
	movq	-296(%rbp), %rax
	movl	18068(%rax), %eax
	cmpl	%eax, -264(%rbp)
	jl	.L798
	movl	$1, %eax
	jmp	.L782
.L770:
	movq	-296(%rbp), %rax
	movl	18516(%rax), %eax
	cmpl	$1, %eax
	jne	.L799
	movq	-296(%rbp), %rax
	movl	18520(%rax), %eax
	movl	%eax, -208(%rbp)
	movq	-296(%rbp), %rcx
	movl	-208(%rbp), %eax
	movslq	%eax, %rdx
	movq	%rdx, %rax
	addq	%rax, %rax
	addq	%rdx, %rax
	salq	$5, %rax
	addq	%rcx, %rax
	addq	$18108, %rax
	movl	(%rax), %eax
	addl	$7, %eax
	sarl	$3, %eax
	movl	%eax, -204(%rbp)
	movq	-296(%rbp), %rcx
	movl	-208(%rbp), %eax
	movslq	%eax, %rdx
	movq	%rdx, %rax
	addq	%rax, %rax
	addq	%rdx, %rax
	salq	$5, %rax
	addq	%rcx, %rax
	addq	$18112, %rax
	movl	(%rax), %eax
	addl	$7, %eax
	sarl	$3, %eax
	movl	%eax, -200(%rbp)
	movl	$0, -244(%rbp)
	jmp	.L800
.L809:
	movl	$0, -248(%rbp)
	jmp	.L801
.L808:
	movq	-296(%rbp), %rcx
	movl	-208(%rbp), %eax
	movslq	%eax, %rdx
	movq	%rdx, %rax
	addq	%rax, %rax
	addq	%rdx, %rax
	salq	$5, %rax
	addq	%rcx, %rax
	addq	$18160, %rax
	movq	(%rax), %rcx
	movq	-296(%rbp), %rsi
	movl	-208(%rbp), %eax
	movslq	%eax, %rdx
	movq	%rdx, %rax
	addq	%rax, %rax
	addq	%rdx, %rax
	salq	$5, %rax
	addq	%rsi, %rax
	addq	$18168, %rax
	movl	(%rax), %eax
	imull	-244(%rbp), %eax
	movl	%eax, %edx
	movl	-248(%rbp), %eax
	addl	%edx, %eax
	sall	$6, %eax
	cltq
	addq	%rax, %rax
	addq	%rcx, %rax
	movq	%rax, -152(%rbp)
	movq	-296(%rbp), %rax
	movl	18484(%rax), %eax
	testl	%eax, %eax
	jne	.L802
	movq	-296(%rbp), %rcx
	movl	-208(%rbp), %eax
	movslq	%eax, %rdx
	movq	%rdx, %rax
	addq	%rax, %rax
	addq	%rdx, %rax
	salq	$5, %rax
	addq	%rcx, %rax
	addq	$18096, %rax
	movl	(%rax), %eax
	cltq
	imulq	$1680, %rax, %rdx
	movq	-296(%rbp), %rax
	addq	%rdx, %rax
	leaq	8(%rax), %rdi
	movl	-208(%rbp), %edx
	movq	-152(%rbp), %rsi
	movq	-296(%rbp), %rax
	movl	%edx, %ecx
	movq	%rdi, %rdx
	movq	%rax, %rdi
	call	stbi__jpeg_decode_block_prog_dc
	testl	%eax, %eax
	jne	.L803
	movl	$0, %eax
	jmp	.L782
.L802:
	movq	-296(%rbp), %rcx
	movl	-208(%rbp), %eax
	movslq	%eax, %rdx
	movq	%rdx, %rax
	addq	%rax, %rax
	addq	%rdx, %rax
	salq	$5, %rax
	addq	%rcx, %rax
	addq	$18100, %rax
	movl	(%rax), %eax
	movl	%eax, -196(%rbp)
	movl	-196(%rbp), %eax
	cltq
	salq	$10, %rax
	leaq	13952(%rax), %rdx
	movq	-296(%rbp), %rax
	addq	%rdx, %rax
	leaq	8(%rax), %rcx
	movl	-196(%rbp), %eax
	cltq
	imulq	$1680, %rax, %rax
	leaq	6720(%rax), %rdx
	movq	-296(%rbp), %rax
	addq	%rdx, %rax
	leaq	8(%rax), %rdx
	movq	-152(%rbp), %rsi
	movq	-296(%rbp), %rax
	movq	%rax, %rdi
	call	stbi__jpeg_decode_block_prog_ac
	testl	%eax, %eax
	jne	.L803
	movl	$0, %eax
	jmp	.L782
.L803:
	movq	-296(%rbp), %rax
	movl	18540(%rax), %eax
	leal	-1(%rax), %edx
	movq	-296(%rbp), %rax
	movl	%edx, 18540(%rax)
	movq	-296(%rbp), %rax
	movl	18540(%rax), %eax
	testl	%eax, %eax
	jg	.L804
	movq	-296(%rbp), %rax
	movl	18468(%rax), %eax
	cmpl	$23, %eax
	jg	.L805
	movq	-296(%rbp), %rax
	movq	%rax, %rdi
	call	stbi__grow_buffer_unsafe
.L805:
	movq	-296(%rbp), %rax
	movzbl	18472(%rax), %eax
	cmpb	$-49, %al
	jbe	.L806
	movq	-296(%rbp), %rax
	movzbl	18472(%rax), %eax
	cmpb	$-41, %al
	jbe	.L807
.L806:
	movl	$1, %eax
	jmp	.L782
.L807:
	movq	-296(%rbp), %rax
	movq	%rax, %rdi
	call	stbi__jpeg_reset
.L804:
	addl	$1, -248(%rbp)
.L801:
	movl	-248(%rbp), %eax
	cmpl	-204(%rbp), %eax
	jl	.L808
	addl	$1, -244(%rbp)
.L800:
	movl	-244(%rbp), %eax
	cmpl	-200(%rbp), %eax
	jl	.L809
	movl	$1, %eax
	jmp	.L782
.L799:
	movl	$0, -236(%rbp)
	jmp	.L810
.L824:
	movl	$0, -240(%rbp)
	jmp	.L811
.L823:
	movl	$0, -232(%rbp)
	jmp	.L812
.L818:
	movq	-296(%rbp), %rax
	movl	-232(%rbp), %edx
	movslq	%edx, %rdx
	addq	$4628, %rdx
	movl	8(%rax,%rdx,4), %eax
	movl	%eax, -220(%rbp)
	movl	$0, -224(%rbp)
	jmp	.L813
.L817:
	movl	$0, -228(%rbp)
	jmp	.L814
.L816:
	movq	-296(%rbp), %rcx
	movl	-220(%rbp), %eax
	movslq	%eax, %rdx
	movq	%rdx, %rax
	addq	%rax, %rax
	addq	%rdx, %rax
	salq	$5, %rax
	addq	%rcx, %rax
	addq	$18084, %rax
	movl	(%rax), %eax
	imull	-240(%rbp), %eax
	movl	%eax, %edx
	movl	-228(%rbp), %eax
	addl	%edx, %eax
	movl	%eax, -216(%rbp)
	movq	-296(%rbp), %rcx
	movl	-220(%rbp), %eax
	movslq	%eax, %rdx
	movq	%rdx, %rax
	addq	%rax, %rax
	addq	%rdx, %rax
	salq	$5, %rax
	addq	%rcx, %rax
	addq	$18088, %rax
	movl	(%rax), %eax
	imull	-236(%rbp), %eax
	movl	%eax, %edx
	movl	-224(%rbp), %eax
	addl	%edx, %eax
	movl	%eax, -212(%rbp)
	movq	-296(%rbp), %rcx
	movl	-220(%rbp), %eax
	movslq	%eax, %rdx
	movq	%rdx, %rax
	addq	%rax, %rax
	addq	%rdx, %rax
	salq	$5, %rax
	addq	%rcx, %rax
	addq	$18160, %rax
	movq	(%rax), %rcx
	movq	-296(%rbp), %rsi
	movl	-220(%rbp), %eax
	movslq	%eax, %rdx
	movq	%rdx, %rax
	addq	%rax, %rax
	addq	%rdx, %rax
	salq	$5, %rax
	addq	%rsi, %rax
	addq	$18168, %rax
	movl	(%rax), %eax
	imull	-212(%rbp), %eax
	movl	%eax, %edx
	movl	-216(%rbp), %eax
	addl	%edx, %eax
	sall	$6, %eax
	cltq
	addq	%rax, %rax
	addq	%rcx, %rax
	movq	%rax, -160(%rbp)
	movq	-296(%rbp), %rcx
	movl	-220(%rbp), %eax
	movslq	%eax, %rdx
	movq	%rdx, %rax
	addq	%rax, %rax
	addq	%rdx, %rax
	salq	$5, %rax
	addq	%rcx, %rax
	addq	$18096, %rax
	movl	(%rax), %eax
	cltq
	imulq	$1680, %rax, %rdx
	movq	-296(%rbp), %rax
	addq	%rdx, %rax
	leaq	8(%rax), %rdi
	movl	-220(%rbp), %edx
	movq	-160(%rbp), %rsi
	movq	-296(%rbp), %rax
	movl	%edx, %ecx
	movq	%rdi, %rdx
	movq	%rax, %rdi
	call	stbi__jpeg_decode_block_prog_dc
	testl	%eax, %eax
	jne	.L815
	movl	$0, %eax
	jmp	.L782
.L815:
	addl	$1, -228(%rbp)
.L814:
	movq	-296(%rbp), %rcx
	movl	-220(%rbp), %eax
	movslq	%eax, %rdx
	movq	%rdx, %rax
	addq	%rax, %rax
	addq	%rdx, %rax
	salq	$5, %rax
	addq	%rcx, %rax
	addq	$18084, %rax
	movl	(%rax), %eax
	cmpl	%eax, -228(%rbp)
	jl	.L816
	addl	$1, -224(%rbp)
.L813:
	movq	-296(%rbp), %rcx
	movl	-220(%rbp), %eax
	movslq	%eax, %rdx
	movq	%rdx, %rax
	addq	%rax, %rax
	addq	%rdx, %rax
	salq	$5, %rax
	addq	%rcx, %rax
	addq	$18088, %rax
	movl	(%rax), %eax
	cmpl	%eax, -224(%rbp)
	jl	.L817
	addl	$1, -232(%rbp)
.L812:
	movq	-296(%rbp), %rax
	movl	18516(%rax), %eax
	cmpl	%eax, -232(%rbp)
	jl	.L818
	movq	-296(%rbp), %rax
	movl	18540(%rax), %eax
	leal	-1(%rax), %edx
	movq	-296(%rbp), %rax
	movl	%edx, 18540(%rax)
	movq	-296(%rbp), %rax
	movl	18540(%rax), %eax
	testl	%eax, %eax
	jg	.L819
	movq	-296(%rbp), %rax
	movl	18468(%rax), %eax
	cmpl	$23, %eax
	jg	.L820
	movq	-296(%rbp), %rax
	movq	%rax, %rdi
	call	stbi__grow_buffer_unsafe
.L820:
	movq	-296(%rbp), %rax
	movzbl	18472(%rax), %eax
	cmpb	$-49, %al
	jbe	.L821
	movq	-296(%rbp), %rax
	movzbl	18472(%rax), %eax
	cmpb	$-41, %al
	jbe	.L822
.L821:
	movl	$1, %eax
	jmp	.L782
.L822:
	movq	-296(%rbp), %rax
	movq	%rax, %rdi
	call	stbi__jpeg_reset
.L819:
	addl	$1, -240(%rbp)
.L811:
	movq	-296(%rbp), %rax
	movl	18064(%rax), %eax
	cmpl	%eax, -240(%rbp)
	jl	.L823
	addl	$1, -236(%rbp)
.L810:
	movq	-296(%rbp), %rax
	movl	18068(%rax), %eax
	cmpl	%eax, -236(%rbp)
	jl	.L824
	movl	$1, %eax
.L782:
	movq	-8(%rbp), %rsi
	xorq	%fs:40, %rsi
	je	.L825
	call	__stack_chk_fail@PLT
.L825:
	leave
	.cfi_def_cfa 7, 8
	ret
	.cfi_endproc
.LFE588:
	.size	stbi__parse_entropy_coded_data, .-stbi__parse_entropy_coded_data
	.type	stbi__jpeg_dequantize, @function
stbi__jpeg_dequantize:
.LFB589:
	.cfi_startproc
	endbr64
	pushq	%rbp
	.cfi_def_cfa_offset 16
	.cfi_offset 6, -16
	movq	%rsp, %rbp
	.cfi_def_cfa_register 6
	movq	%rdi, -24(%rbp)
	movq	%rsi, -32(%rbp)
	movl	$0, -4(%rbp)
	jmp	.L827
.L828:
	movl	-4(%rbp), %eax
	cltq
	leaq	(%rax,%rax), %rdx
	movq	-24(%rbp), %rax
	addq	%rdx, %rax
	movzwl	(%rax), %eax
	movl	%eax, %ecx
	movl	-4(%rbp), %eax
	cltq
	leaq	(%rax,%rax), %rdx
	movq	-32(%rbp), %rax
	addq	%rdx, %rax
	movzwl	(%rax), %eax
	imull	%eax, %ecx
	movl	%ecx, %edx
	movl	-4(%rbp), %eax
	cltq
	leaq	(%rax,%rax), %rcx
	movq	-24(%rbp), %rax
	addq	%rcx, %rax
	movw	%dx, (%rax)
	addl	$1, -4(%rbp)
.L827:
	cmpl	$63, -4(%rbp)
	jle	.L828
	nop
	nop
	popq	%rbp
	.cfi_def_cfa 7, 8
	ret
	.cfi_endproc
.LFE589:
	.size	stbi__jpeg_dequantize, .-stbi__jpeg_dequantize
	.type	stbi__jpeg_finish, @function
stbi__jpeg_finish:
.LFB590:
	.cfi_startproc
	endbr64
	pushq	%rbp
	.cfi_def_cfa_offset 16
	.cfi_offset 6, -16
	movq	%rsp, %rbp
	.cfi_def_cfa_register 6
	subq	$48, %rsp
	movq	%rdi, -40(%rbp)
	movq	-40(%rbp), %rax
	movl	18480(%rax), %eax
	testl	%eax, %eax
	je	.L837
	movl	$0, -20(%rbp)
	jmp	.L831
.L836:
	movq	-40(%rbp), %rcx
	movl	-20(%rbp), %eax
	movslq	%eax, %rdx
	movq	%rdx, %rax
	addq	%rax, %rax
	addq	%rdx, %rax
	salq	$5, %rax
	addq	%rcx, %rax
	addq	$18108, %rax
	movl	(%rax), %eax
	addl	$7, %eax
	sarl	$3, %eax
	movl	%eax, -16(%rbp)
	movq	-40(%rbp), %rcx
	movl	-20(%rbp), %eax
	movslq	%eax, %rdx
	movq	%rdx, %rax
	addq	%rax, %rax
	addq	%rdx, %rax
	salq	$5, %rax
	addq	%rcx, %rax
	addq	$18112, %rax
	movl	(%rax), %eax
	addl	$7, %eax
	sarl	$3, %eax
	movl	%eax, -12(%rbp)
	movl	$0, -24(%rbp)
	jmp	.L832
.L835:
	movl	$0, -28(%rbp)
	jmp	.L833
.L834:
	movq	-40(%rbp), %rcx
	movl	-20(%rbp), %eax
	movslq	%eax, %rdx
	movq	%rdx, %rax
	addq	%rax, %rax
	addq	%rdx, %rax
	salq	$5, %rax
	addq	%rcx, %rax
	addq	$18160, %rax
	movq	(%rax), %rcx
	movq	-40(%rbp), %rsi
	movl	-20(%rbp), %eax
	movslq	%eax, %rdx
	movq	%rdx, %rax
	addq	%rax, %rax
	addq	%rdx, %rax
	salq	$5, %rax
	addq	%rsi, %rax
	addq	$18168, %rax
	movl	(%rax), %eax
	imull	-24(%rbp), %eax
	movl	%eax, %edx
	movl	-28(%rbp), %eax
	addl	%edx, %eax
	sall	$6, %eax
	cltq
	addq	%rax, %rax
	addq	%rcx, %rax
	movq	%rax, -8(%rbp)
	movq	-40(%rbp), %rcx
	movl	-20(%rbp), %eax
	movslq	%eax, %rdx
	movq	%rdx, %rax
	addq	%rax, %rax
	addq	%rdx, %rax
	salq	$5, %rax
	addq	%rcx, %rax
	addq	$18092, %rax
	movl	(%rax), %eax
	cltq
	addq	$105, %rax
	salq	$7, %rax
	movq	%rax, %rdx
	movq	-40(%rbp), %rax
	addq	%rdx, %rax
	leaq	8(%rax), %rdx
	movq	-8(%rbp), %rax
	movq	%rdx, %rsi
	movq	%rax, %rdi
	call	stbi__jpeg_dequantize
	movq	-40(%rbp), %rax
	movq	18544(%rax), %r8
	movq	-40(%rbp), %rcx
	movl	-20(%rbp), %eax
	movslq	%eax, %rdx
	movq	%rdx, %rax
	addq	%rax, %rax
	addq	%rdx, %rax
	salq	$5, %rax
	addq	%rcx, %rax
	addq	$18116, %rax
	movl	(%rax), %ecx
	movq	-40(%rbp), %rsi
	movl	-20(%rbp), %eax
	movslq	%eax, %rdx
	movq	%rdx, %rax
	addq	%rax, %rax
	addq	%rdx, %rax
	salq	$5, %rax
	addq	%rsi, %rax
	addq	$18128, %rax
	movq	(%rax), %rsi
	movq	-40(%rbp), %rdi
	movl	-20(%rbp), %eax
	movslq	%eax, %rdx
	movq	%rdx, %rax
	addq	%rax, %rax
	addq	%rdx, %rax
	salq	$5, %rax
	addq	%rdi, %rax
	addq	$18116, %rax
	movl	(%rax), %eax
	imull	-24(%rbp), %eax
	sall	$3, %eax
	movslq	%eax, %rdx
	movl	-28(%rbp), %eax
	sall	$3, %eax
	cltq
	addq	%rdx, %rax
	leaq	(%rsi,%rax), %rdi
	movq	-8(%rbp), %rax
	movq	%rax, %rdx
	movl	%ecx, %esi
	call	*%r8
	addl	$1, -28(%rbp)
.L833:
	movl	-28(%rbp), %eax
	cmpl	-16(%rbp), %eax
	jl	.L834
	addl	$1, -24(%rbp)
.L832:
	movl	-24(%rbp), %eax
	cmpl	-12(%rbp), %eax
	jl	.L835
	addl	$1, -20(%rbp)
.L831:
	movq	-40(%rbp), %rax
	movq	(%rax), %rax
	movl	8(%rax), %eax
	cmpl	%eax, -20(%rbp)
	jl	.L836
.L837:
	nop
	leave
	.cfi_def_cfa 7, 8
	ret
	.cfi_endproc
.LFE590:
	.size	stbi__jpeg_finish, .-stbi__jpeg_finish
	.section	.rodata
.LC16:
	.string	"expected marker"
.LC17:
	.string	"bad DRI len"
.LC18:
	.string	"bad DQT type"
.LC19:
	.string	"bad DQT table"
.LC20:
	.string	"bad DHT header"
.LC21:
	.string	"bad COM len"
.LC22:
	.string	"bad APP len"
.LC23:
	.string	"unknown marker"
	.text
	.type	stbi__process_marker, @function
stbi__process_marker:
.LFB591:
	.cfi_startproc
	endbr64
	pushq	%rbp
	.cfi_def_cfa_offset 16
	.cfi_offset 6, -16
	movq	%rsp, %rbp
	.cfi_def_cfa_register 6
	pushq	%rbx
	subq	$184, %rsp
	.cfi_offset 3, -24
	movq	%rdi, -184(%rbp)
	movl	%esi, -188(%rbp)
	movq	%fs:40, %rax
	movq	%rax, -24(%rbp)
	xorl	%eax, %eax
	cmpl	$255, -188(%rbp)
	je	.L839
	cmpl	$255, -188(%rbp)
	jg	.L840
	cmpl	$221, -188(%rbp)
	je	.L841
	cmpl	$221, -188(%rbp)
	jg	.L840
	cmpl	$196, -188(%rbp)
	je	.L842
	cmpl	$219, -188(%rbp)
	je	.L843
	jmp	.L840
.L839:
	leaq	.LC16(%rip), %rdi
	call	stbi__err
	jmp	.L844
.L841:
	movq	-184(%rbp), %rax
	movq	(%rax), %rax
	movq	%rax, %rdi
	call	stbi__get16be
	cmpl	$4, %eax
	je	.L845
	leaq	.LC17(%rip), %rdi
	call	stbi__err
	jmp	.L844
.L845:
	movq	-184(%rbp), %rax
	movq	(%rax), %rax
	movq	%rax, %rdi
	call	stbi__get16be
	movq	-184(%rbp), %rdx
	movl	%eax, 18536(%rdx)
	movl	$1, %eax
	jmp	.L844
.L843:
	movq	-184(%rbp), %rax
	movq	(%rax), %rax
	movq	%rax, %rdi
	call	stbi__get16be
	subl	$2, %eax
	movl	%eax, -164(%rbp)
	jmp	.L846
.L855:
	movq	-184(%rbp), %rax
	movq	(%rax), %rax
	movq	%rax, %rdi
	call	stbi__get8
	movzbl	%al, %eax
	movl	%eax, -132(%rbp)
	movl	-132(%rbp), %eax
	sarl	$4, %eax
	movl	%eax, -128(%rbp)
	cmpl	$0, -128(%rbp)
	setne	%al
	movzbl	%al, %eax
	movl	%eax, -124(%rbp)
	movl	-132(%rbp), %eax
	andl	$15, %eax
	movl	%eax, -120(%rbp)
	cmpl	$0, -128(%rbp)
	je	.L847
	cmpl	$1, -128(%rbp)
	je	.L847
	leaq	.LC18(%rip), %rdi
	call	stbi__err
	jmp	.L844
.L847:
	cmpl	$3, -120(%rbp)
	jle	.L848
	leaq	.LC19(%rip), %rdi
	call	stbi__err
	jmp	.L844
.L848:
	movl	$0, -160(%rbp)
	jmp	.L849
.L852:
	cmpl	$0, -124(%rbp)
	je	.L850
	movq	-184(%rbp), %rax
	movq	(%rax), %rax
	movq	%rax, %rdi
	call	stbi__get16be
	jmp	.L851
.L850:
	movq	-184(%rbp), %rax
	movq	(%rax), %rax
	movq	%rax, %rdi
	call	stbi__get8
	movzbl	%al, %eax
.L851:
	movl	-160(%rbp), %edx
	movslq	%edx, %rdx
	leaq	stbi__jpeg_dezigzag(%rip), %rcx
	movzbl	(%rdx,%rcx), %edx
	movzbl	%dl, %ecx
	movq	-184(%rbp), %rdx
	movslq	%ecx, %rcx
	movl	-120(%rbp), %esi
	movslq	%esi, %rsi
	salq	$6, %rsi
	addq	%rsi, %rcx
	addq	$6720, %rcx
	movw	%ax, 8(%rdx,%rcx,2)
	addl	$1, -160(%rbp)
.L849:
	cmpl	$63, -160(%rbp)
	jle	.L852
	cmpl	$0, -124(%rbp)
	je	.L853
	movl	$129, %eax
	jmp	.L854
.L853:
	movl	$65, %eax
.L854:
	subl	%eax, -164(%rbp)
.L846:
	cmpl	$0, -164(%rbp)
	jg	.L855
	cmpl	$0, -164(%rbp)
	sete	%al
	movzbl	%al, %eax
	jmp	.L844
.L842:
	movq	-184(%rbp), %rax
	movq	(%rax), %rax
	movq	%rax, %rdi
	call	stbi__get16be
	subl	$2, %eax
	movl	%eax, -164(%rbp)
	jmp	.L856
.L869:
	movl	$0, -152(%rbp)
	movq	-184(%rbp), %rax
	movq	(%rax), %rax
	movq	%rax, %rdi
	call	stbi__get8
	movzbl	%al, %eax
	movl	%eax, -116(%rbp)
	movl	-116(%rbp), %eax
	sarl	$4, %eax
	movl	%eax, -112(%rbp)
	movl	-116(%rbp), %eax
	andl	$15, %eax
	movl	%eax, -108(%rbp)
	cmpl	$1, -112(%rbp)
	jg	.L857
	cmpl	$3, -108(%rbp)
	jle	.L858
.L857:
	leaq	.LC20(%rip), %rdi
	call	stbi__err
	jmp	.L844
.L858:
	movl	$0, -156(%rbp)
	jmp	.L860
.L861:
	movq	-184(%rbp), %rax
	movq	(%rax), %rax
	movq	%rax, %rdi
	call	stbi__get8
	movzbl	%al, %edx
	movl	-156(%rbp), %eax
	cltq
	movl	%edx, -96(%rbp,%rax,4)
	movl	-156(%rbp), %eax
	cltq
	movl	-96(%rbp,%rax,4), %eax
	addl	%eax, -152(%rbp)
	addl	$1, -156(%rbp)
.L860:
	cmpl	$15, -156(%rbp)
	jle	.L861
	subl	$17, -164(%rbp)
	cmpl	$0, -112(%rbp)
	jne	.L862
	movq	-184(%rbp), %rax
	leaq	8(%rax), %rdx
	movl	-108(%rbp), %eax
	cltq
	imulq	$1680, %rax, %rax
	addq	%rax, %rdx
	leaq	-96(%rbp), %rax
	movq	%rax, %rsi
	movq	%rdx, %rdi
	call	stbi__build_huffman
	testl	%eax, %eax
	jne	.L863
	movl	$0, %eax
	jmp	.L844
.L863:
	movl	-108(%rbp), %eax
	cltq
	imulq	$1680, %rax, %rax
	leaq	1024(%rax), %rdx
	movq	-184(%rbp), %rax
	addq	%rdx, %rax
	addq	$8, %rax
	movq	%rax, -104(%rbp)
	jmp	.L864
.L862:
	movq	-184(%rbp), %rax
	leaq	6728(%rax), %rdx
	movl	-108(%rbp), %eax
	cltq
	imulq	$1680, %rax, %rax
	addq	%rax, %rdx
	leaq	-96(%rbp), %rax
	movq	%rax, %rsi
	movq	%rdx, %rdi
	call	stbi__build_huffman
	testl	%eax, %eax
	jne	.L865
	movl	$0, %eax
	jmp	.L844
.L865:
	movl	-108(%rbp), %eax
	cltq
	imulq	$1680, %rax, %rax
	leaq	7744(%rax), %rdx
	movq	-184(%rbp), %rax
	addq	%rdx, %rax
	addq	$8, %rax
	movq	%rax, -104(%rbp)
.L864:
	movl	$0, -156(%rbp)
	jmp	.L866
.L867:
	movq	-184(%rbp), %rax
	movq	(%rax), %rax
	movl	-156(%rbp), %edx
	movslq	%edx, %rcx
	movq	-104(%rbp), %rdx
	leaq	(%rcx,%rdx), %rbx
	movq	%rax, %rdi
	call	stbi__get8
	movb	%al, (%rbx)
	addl	$1, -156(%rbp)
.L866:
	movl	-156(%rbp), %eax
	cmpl	-152(%rbp), %eax
	jl	.L867
	cmpl	$0, -112(%rbp)
	je	.L868
	movq	-184(%rbp), %rax
	leaq	6728(%rax), %rdx
	movl	-108(%rbp), %eax
	cltq
	imulq	$1680, %rax, %rax
	addq	%rax, %rdx
	movl	-108(%rbp), %eax
	cltq
	salq	$10, %rax
	leaq	13952(%rax), %rcx
	movq	-184(%rbp), %rax
	addq	%rcx, %rax
	addq	$8, %rax
	movq	%rdx, %rsi
	movq	%rax, %rdi
	call	stbi__build_fast_ac
.L868:
	movl	-152(%rbp), %eax
	subl	%eax, -164(%rbp)
.L856:
	cmpl	$0, -164(%rbp)
	jg	.L869
	cmpl	$0, -164(%rbp)
	sete	%al
	movzbl	%al, %eax
	jmp	.L844
.L840:
	cmpl	$223, -188(%rbp)
	jle	.L870
	cmpl	$239, -188(%rbp)
	jle	.L871
.L870:
	cmpl	$254, -188(%rbp)
	jne	.L872
.L871:
	movq	-184(%rbp), %rax
	movq	(%rax), %rax
	movq	%rax, %rdi
	call	stbi__get16be
	movl	%eax, -164(%rbp)
	cmpl	$1, -164(%rbp)
	jg	.L873
	cmpl	$254, -188(%rbp)
	jne	.L874
	leaq	.LC21(%rip), %rdi
	call	stbi__err
	jmp	.L844
.L874:
	leaq	.LC22(%rip), %rdi
	call	stbi__err
	jmp	.L844
.L873:
	subl	$2, -164(%rbp)
	cmpl	$224, -188(%rbp)
	jne	.L875
	cmpl	$4, -164(%rbp)
	jle	.L875
	movl	$1, -148(%rbp)
	movl	$0, -144(%rbp)
	jmp	.L876
.L878:
	movq	-184(%rbp), %rax
	movq	(%rax), %rax
	movq	%rax, %rdi
	call	stbi__get8
	movl	-144(%rbp), %edx
	movslq	%edx, %rdx
	leaq	tag.7682(%rip), %rcx
	movzbl	(%rdx,%rcx), %edx
	cmpb	%dl, %al
	je	.L877
	movl	$0, -148(%rbp)
.L877:
	addl	$1, -144(%rbp)
.L876:
	cmpl	$4, -144(%rbp)
	jle	.L878
	subl	$5, -164(%rbp)
	cmpl	$0, -148(%rbp)
	je	.L885
	movq	-184(%rbp), %rax
	movl	$1, 18504(%rax)
	jmp	.L885
.L875:
	cmpl	$238, -188(%rbp)
	jne	.L880
	cmpl	$11, -164(%rbp)
	jle	.L880
	movl	$1, -140(%rbp)
	movl	$0, -136(%rbp)
	jmp	.L881
.L883:
	movq	-184(%rbp), %rax
	movq	(%rax), %rax
	movq	%rax, %rdi
	call	stbi__get8
	movl	-136(%rbp), %edx
	movslq	%edx, %rdx
	leaq	tag.7688(%rip), %rcx
	movzbl	(%rdx,%rcx), %edx
	cmpb	%dl, %al
	je	.L882
	movl	$0, -140(%rbp)
.L882:
	addl	$1, -136(%rbp)
.L881:
	cmpl	$5, -136(%rbp)
	jle	.L883
	subl	$6, -164(%rbp)
	cmpl	$0, -140(%rbp)
	je	.L880
	movq	-184(%rbp), %rax
	movq	(%rax), %rax
	movq	%rax, %rdi
	call	stbi__get8
	movq	-184(%rbp), %rax
	movq	(%rax), %rax
	movq	%rax, %rdi
	call	stbi__get16be
	movq	-184(%rbp), %rax
	movq	(%rax), %rax
	movq	%rax, %rdi
	call	stbi__get16be
	movq	-184(%rbp), %rax
	movq	(%rax), %rax
	movq	%rax, %rdi
	call	stbi__get8
	movzbl	%al, %edx
	movq	-184(%rbp), %rax
	movl	%edx, 18508(%rax)
	subl	$6, -164(%rbp)
	jmp	.L880
.L885:
	nop
.L880:
	movq	-184(%rbp), %rax
	movq	(%rax), %rax
	movl	-164(%rbp), %edx
	movl	%edx, %esi
	movq	%rax, %rdi
	call	stbi__skip
	movl	$1, %eax
	jmp	.L844
.L872:
	leaq	.LC23(%rip), %rdi
	call	stbi__err
.L844:
	movq	-24(%rbp), %rbx
	xorq	%fs:40, %rbx
	je	.L884
	call	__stack_chk_fail@PLT
.L884:
	addq	$184, %rsp
	popq	%rbx
	popq	%rbp
	.cfi_def_cfa 7, 8
	ret
	.cfi_endproc
.LFE591:
	.size	stbi__process_marker, .-stbi__process_marker
	.section	.rodata
.LC24:
	.string	"bad SOS component count"
.LC25:
	.string	"bad SOS len"
.LC26:
	.string	"bad DC huff"
.LC27:
	.string	"bad AC huff"
.LC28:
	.string	"bad SOS"
	.text
	.type	stbi__process_scan_header, @function
stbi__process_scan_header:
.LFB592:
	.cfi_startproc
	endbr64
	pushq	%rbp
	.cfi_def_cfa_offset 16
	.cfi_offset 6, -16
	movq	%rsp, %rbp
	.cfi_def_cfa_register 6
	subq	$48, %rsp
	movq	%rdi, -40(%rbp)
	movq	-40(%rbp), %rax
	movq	(%rax), %rax
	movq	%rax, %rdi
	call	stbi__get16be
	movl	%eax, -16(%rbp)
	movq	-40(%rbp), %rax
	movq	(%rax), %rax
	movq	%rax, %rdi
	call	stbi__get8
	movzbl	%al, %edx
	movq	-40(%rbp), %rax
	movl	%edx, 18516(%rax)
	movq	-40(%rbp), %rax
	movl	18516(%rax), %eax
	testl	%eax, %eax
	jle	.L887
	movq	-40(%rbp), %rax
	movl	18516(%rax), %eax
	cmpl	$4, %eax
	jg	.L887
	movq	-40(%rbp), %rax
	movl	18516(%rax), %edx
	movq	-40(%rbp), %rax
	movq	(%rax), %rax
	movl	8(%rax), %eax
	cmpl	%eax, %edx
	jle	.L888
.L887:
	leaq	.LC24(%rip), %rdi
	call	stbi__err
	jmp	.L889
.L888:
	movq	-40(%rbp), %rax
	movl	18516(%rax), %eax
	addl	$3, %eax
	addl	%eax, %eax
	cmpl	%eax, -16(%rbp)
	je	.L890
	leaq	.LC25(%rip), %rdi
	call	stbi__err
	jmp	.L889
.L890:
	movl	$0, -24(%rbp)
	jmp	.L891
.L899:
	movq	-40(%rbp), %rax
	movq	(%rax), %rax
	movq	%rax, %rdi
	call	stbi__get8
	movzbl	%al, %eax
	movl	%eax, -8(%rbp)
	movq	-40(%rbp), %rax
	movq	(%rax), %rax
	movq	%rax, %rdi
	call	stbi__get8
	movzbl	%al, %eax
	movl	%eax, -4(%rbp)
	movl	$0, -20(%rbp)
	jmp	.L892
.L895:
	movq	-40(%rbp), %rcx
	movl	-20(%rbp), %eax
	movslq	%eax, %rdx
	movq	%rdx, %rax
	addq	%rax, %rax
	addq	%rdx, %rax
	salq	$5, %rax
	addq	%rcx, %rax
	addq	$18080, %rax
	movl	(%rax), %eax
	cmpl	%eax, -8(%rbp)
	je	.L906
	addl	$1, -20(%rbp)
.L892:
	movq	-40(%rbp), %rax
	movq	(%rax), %rax
	movl	8(%rax), %eax
	cmpl	%eax, -20(%rbp)
	jl	.L895
	jmp	.L894
.L906:
	nop
.L894:
	movq	-40(%rbp), %rax
	movq	(%rax), %rax
	movl	8(%rax), %eax
	cmpl	%eax, -20(%rbp)
	jne	.L896
	movl	$0, %eax
	jmp	.L889
.L896:
	movl	-4(%rbp), %eax
	sarl	$4, %eax
	movl	%eax, %ecx
	movq	-40(%rbp), %rsi
	movl	-20(%rbp), %eax
	movslq	%eax, %rdx
	movq	%rdx, %rax
	addq	%rax, %rax
	addq	%rdx, %rax
	salq	$5, %rax
	addq	%rsi, %rax
	addq	$18096, %rax
	movl	%ecx, (%rax)
	movq	-40(%rbp), %rcx
	movl	-20(%rbp), %eax
	movslq	%eax, %rdx
	movq	%rdx, %rax
	addq	%rax, %rax
	addq	%rdx, %rax
	salq	$5, %rax
	addq	%rcx, %rax
	addq	$18096, %rax
	movl	(%rax), %eax
	cmpl	$3, %eax
	jle	.L897
	leaq	.LC26(%rip), %rdi
	call	stbi__err
	jmp	.L889
.L897:
	movl	-4(%rbp), %eax
	andl	$15, %eax
	movl	%eax, %ecx
	movq	-40(%rbp), %rsi
	movl	-20(%rbp), %eax
	movslq	%eax, %rdx
	movq	%rdx, %rax
	addq	%rax, %rax
	addq	%rdx, %rax
	salq	$5, %rax
	addq	%rsi, %rax
	addq	$18100, %rax
	movl	%ecx, (%rax)
	movq	-40(%rbp), %rcx
	movl	-20(%rbp), %eax
	movslq	%eax, %rdx
	movq	%rdx, %rax
	addq	%rax, %rax
	addq	%rdx, %rax
	salq	$5, %rax
	addq	%rcx, %rax
	addq	$18100, %rax
	movl	(%rax), %eax
	cmpl	$3, %eax
	jle	.L898
	leaq	.LC27(%rip), %rdi
	call	stbi__err
	jmp	.L889
.L898:
	movq	-40(%rbp), %rax
	movl	-24(%rbp), %edx
	movslq	%edx, %rdx
	leaq	4628(%rdx), %rcx
	movl	-20(%rbp), %edx
	movl	%edx, 8(%rax,%rcx,4)
	addl	$1, -24(%rbp)
.L891:
	movq	-40(%rbp), %rax
	movl	18516(%rax), %eax
	cmpl	%eax, -24(%rbp)
	jl	.L899
	movq	-40(%rbp), %rax
	movq	(%rax), %rax
	movq	%rax, %rdi
	call	stbi__get8
	movzbl	%al, %edx
	movq	-40(%rbp), %rax
	movl	%edx, 18484(%rax)
	movq	-40(%rbp), %rax
	movq	(%rax), %rax
	movq	%rax, %rdi
	call	stbi__get8
	movzbl	%al, %edx
	movq	-40(%rbp), %rax
	movl	%edx, 18488(%rax)
	movq	-40(%rbp), %rax
	movq	(%rax), %rax
	movq	%rax, %rdi
	call	stbi__get8
	movzbl	%al, %eax
	movl	%eax, -12(%rbp)
	movl	-12(%rbp), %eax
	sarl	$4, %eax
	movl	%eax, %edx
	movq	-40(%rbp), %rax
	movl	%edx, 18492(%rax)
	movl	-12(%rbp), %eax
	andl	$15, %eax
	movl	%eax, %edx
	movq	-40(%rbp), %rax
	movl	%edx, 18496(%rax)
	movq	-40(%rbp), %rax
	movl	18480(%rax), %eax
	testl	%eax, %eax
	je	.L900
	movq	-40(%rbp), %rax
	movl	18484(%rax), %eax
	cmpl	$63, %eax
	jg	.L901
	movq	-40(%rbp), %rax
	movl	18488(%rax), %eax
	cmpl	$63, %eax
	jg	.L901
	movq	-40(%rbp), %rax
	movl	18484(%rax), %edx
	movq	-40(%rbp), %rax
	movl	18488(%rax), %eax
	cmpl	%eax, %edx
	jg	.L901
	movq	-40(%rbp), %rax
	movl	18492(%rax), %eax
	cmpl	$13, %eax
	jg	.L901
	movq	-40(%rbp), %rax
	movl	18496(%rax), %eax
	cmpl	$13, %eax
	jle	.L902
.L901:
	leaq	.LC28(%rip), %rdi
	call	stbi__err
	jmp	.L889
.L900:
	movq	-40(%rbp), %rax
	movl	18484(%rax), %eax
	testl	%eax, %eax
	je	.L903
	leaq	.LC28(%rip), %rdi
	call	stbi__err
	jmp	.L889
.L903:
	movq	-40(%rbp), %rax
	movl	18492(%rax), %eax
	testl	%eax, %eax
	jne	.L904
	movq	-40(%rbp), %rax
	movl	18496(%rax), %eax
	testl	%eax, %eax
	je	.L905
.L904:
	leaq	.LC28(%rip), %rdi
	call	stbi__err
	jmp	.L889
.L905:
	movq	-40(%rbp), %rax
	movl	$63, 18488(%rax)
.L902:
	movl	$1, %eax
.L889:
	leave
	.cfi_def_cfa 7, 8
	ret
	.cfi_endproc
.LFE592:
	.size	stbi__process_scan_header, .-stbi__process_scan_header
	.type	stbi__free_jpeg_components, @function
stbi__free_jpeg_components:
.LFB593:
	.cfi_startproc
	endbr64
	pushq	%rbp
	.cfi_def_cfa_offset 16
	.cfi_offset 6, -16
	movq	%rsp, %rbp
	.cfi_def_cfa_register 6
	subq	$32, %rsp
	movq	%rdi, -24(%rbp)
	movl	%esi, -28(%rbp)
	movl	%edx, -32(%rbp)
	movl	$0, -4(%rbp)
	jmp	.L908
.L912:
	movq	-24(%rbp), %rcx
	movl	-4(%rbp), %eax
	movslq	%eax, %rdx
	movq	%rdx, %rax
	addq	%rax, %rax
	addq	%rdx, %rax
	salq	$5, %rax
	addq	%rcx, %rax
	addq	$18136, %rax
	movq	(%rax), %rax
	testq	%rax, %rax
	je	.L909
	movq	-24(%rbp), %rcx
	movl	-4(%rbp), %eax
	movslq	%eax, %rdx
	movq	%rdx, %rax
	addq	%rax, %rax
	addq	%rdx, %rax
	salq	$5, %rax
	addq	%rcx, %rax
	addq	$18136, %rax
	movq	(%rax), %rax
	movq	%rax, %rdi
	call	free@PLT
	movq	-24(%rbp), %rcx
	movl	-4(%rbp), %eax
	movslq	%eax, %rdx
	movq	%rdx, %rax
	addq	%rax, %rax
	addq	%rdx, %rax
	salq	$5, %rax
	addq	%rcx, %rax
	addq	$18136, %rax
	movq	$0, (%rax)
	movq	-24(%rbp), %rcx
	movl	-4(%rbp), %eax
	movslq	%eax, %rdx
	movq	%rdx, %rax
	addq	%rax, %rax
	addq	%rdx, %rax
	salq	$5, %rax
	addq	%rcx, %rax
	addq	$18128, %rax
	movq	$0, (%rax)
.L909:
	movq	-24(%rbp), %rcx
	movl	-4(%rbp), %eax
	movslq	%eax, %rdx
	movq	%rdx, %rax
	addq	%rax, %rax
	addq	%rdx, %rax
	salq	$5, %rax
	addq	%rcx, %rax
	addq	$18144, %rax
	movq	(%rax), %rax
	testq	%rax, %rax
	je	.L910
	movq	-24(%rbp), %rcx
	movl	-4(%rbp), %eax
	movslq	%eax, %rdx
	movq	%rdx, %rax
	addq	%rax, %rax
	addq	%rdx, %rax
	salq	$5, %rax
	addq	%rcx, %rax
	addq	$18144, %rax
	movq	(%rax), %rax
	movq	%rax, %rdi
	call	free@PLT
	movq	-24(%rbp), %rcx
	movl	-4(%rbp), %eax
	movslq	%eax, %rdx
	movq	%rdx, %rax
	addq	%rax, %rax
	addq	%rdx, %rax
	salq	$5, %rax
	addq	%rcx, %rax
	addq	$18144, %rax
	movq	$0, (%rax)
	movq	-24(%rbp), %rcx
	movl	-4(%rbp), %eax
	movslq	%eax, %rdx
	movq	%rdx, %rax
	addq	%rax, %rax
	addq	%rdx, %rax
	salq	$5, %rax
	addq	%rcx, %rax
	addq	$18160, %rax
	movq	$0, (%rax)
.L910:
	movq	-24(%rbp), %rcx
	movl	-4(%rbp), %eax
	movslq	%eax, %rdx
	movq	%rdx, %rax
	addq	%rax, %rax
	addq	%rdx, %rax
	salq	$5, %rax
	addq	%rcx, %rax
	addq	$18152, %rax
	movq	(%rax), %rax
	testq	%rax, %rax
	je	.L911
	movq	-24(%rbp), %rcx
	movl	-4(%rbp), %eax
	movslq	%eax, %rdx
	movq	%rdx, %rax
	addq	%rax, %rax
	addq	%rdx, %rax
	salq	$5, %rax
	addq	%rcx, %rax
	addq	$18152, %rax
	movq	(%rax), %rax
	movq	%rax, %rdi
	call	free@PLT
	movq	-24(%rbp), %rcx
	movl	-4(%rbp), %eax
	movslq	%eax, %rdx
	movq	%rdx, %rax
	addq	%rax, %rax
	addq	%rdx, %rax
	salq	$5, %rax
	addq	%rcx, %rax
	addq	$18152, %rax
	movq	$0, (%rax)
.L911:
	addl	$1, -4(%rbp)
.L908:
	movl	-4(%rbp), %eax
	cmpl	-28(%rbp), %eax
	jl	.L912
	movl	-32(%rbp), %eax
	leave
	.cfi_def_cfa 7, 8
	ret
	.cfi_endproc
.LFE593:
	.size	stbi__free_jpeg_components, .-stbi__free_jpeg_components
	.section	.rodata
.LC29:
	.string	"bad SOF len"
.LC30:
	.string	"only 8-bit"
.LC31:
	.string	"no header height"
.LC32:
	.string	"0 width"
.LC33:
	.string	"too large"
.LC34:
	.string	"bad component count"
.LC35:
	.string	"bad H"
.LC36:
	.string	"bad V"
.LC37:
	.string	"bad TQ"
	.text
	.type	stbi__process_frame_header, @function
stbi__process_frame_header:
.LFB594:
	.cfi_startproc
	endbr64
	pushq	%rbp
	.cfi_def_cfa_offset 16
	.cfi_offset 6, -16
	movq	%rsp, %rbp
	.cfi_def_cfa_register 6
	subq	$64, %rsp
	movq	%rdi, -56(%rbp)
	movl	%esi, -60(%rbp)
	movq	-56(%rbp), %rax
	movq	(%rax), %rax
	movq	%rax, -8(%rbp)
	movl	$1, -32(%rbp)
	movl	$1, -28(%rbp)
	movq	-8(%rbp), %rax
	movq	%rax, %rdi
	call	stbi__get16be
	movl	%eax, -24(%rbp)
	cmpl	$10, -24(%rbp)
	jg	.L915
	leaq	.LC29(%rip), %rdi
	call	stbi__err
	jmp	.L916
.L915:
	movq	-8(%rbp), %rax
	movq	%rax, %rdi
	call	stbi__get8
	movzbl	%al, %eax
	movl	%eax, -20(%rbp)
	cmpl	$8, -20(%rbp)
	je	.L917
	leaq	.LC30(%rip), %rdi
	call	stbi__err
	jmp	.L916
.L917:
	movq	-8(%rbp), %rax
	movq	%rax, %rdi
	call	stbi__get16be
	movl	%eax, %edx
	movq	-8(%rbp), %rax
	movl	%edx, 4(%rax)
	movq	-8(%rbp), %rax
	movl	4(%rax), %eax
	testl	%eax, %eax
	jne	.L918
	leaq	.LC31(%rip), %rdi
	call	stbi__err
	jmp	.L916
.L918:
	movq	-8(%rbp), %rax
	movq	%rax, %rdi
	call	stbi__get16be
	movl	%eax, %edx
	movq	-8(%rbp), %rax
	movl	%edx, (%rax)
	movq	-8(%rbp), %rax
	movl	(%rax), %eax
	testl	%eax, %eax
	jne	.L919
	leaq	.LC32(%rip), %rdi
	call	stbi__err
	jmp	.L916
.L919:
	movq	-8(%rbp), %rax
	movl	4(%rax), %eax
	cmpl	$16777216, %eax
	jbe	.L920
	leaq	.LC33(%rip), %rdi
	call	stbi__err
	jmp	.L916
.L920:
	movq	-8(%rbp), %rax
	movl	(%rax), %eax
	cmpl	$16777216, %eax
	jbe	.L921
	leaq	.LC33(%rip), %rdi
	call	stbi__err
	jmp	.L916
.L921:
	movq	-8(%rbp), %rax
	movq	%rax, %rdi
	call	stbi__get8
	movzbl	%al, %eax
	movl	%eax, -16(%rbp)
	cmpl	$3, -16(%rbp)
	je	.L922
	cmpl	$1, -16(%rbp)
	je	.L922
	cmpl	$4, -16(%rbp)
	je	.L922
	leaq	.LC34(%rip), %rdi
	call	stbi__err
	jmp	.L916
.L922:
	movq	-8(%rbp), %rax
	movl	-16(%rbp), %edx
	movl	%edx, 8(%rax)
	movl	$0, -36(%rbp)
	jmp	.L923
.L924:
	movq	-56(%rbp), %rcx
	movl	-36(%rbp), %eax
	movslq	%eax, %rdx
	movq	%rdx, %rax
	addq	%rax, %rax
	addq	%rdx, %rax
	salq	$5, %rax
	addq	%rcx, %rax
	addq	$18128, %rax
	movq	$0, (%rax)
	movq	-56(%rbp), %rcx
	movl	-36(%rbp), %eax
	movslq	%eax, %rdx
	movq	%rdx, %rax
	addq	%rax, %rax
	addq	%rdx, %rax
	salq	$5, %rax
	addq	%rcx, %rax
	addq	$18152, %rax
	movq	$0, (%rax)
	addl	$1, -36(%rbp)
.L923:
	movl	-36(%rbp), %eax
	cmpl	-16(%rbp), %eax
	jl	.L924
	movq	-8(%rbp), %rax
	movl	8(%rax), %edx
	movl	%edx, %eax
	addl	%eax, %eax
	addl	%edx, %eax
	addl	$8, %eax
	cmpl	%eax, -24(%rbp)
	je	.L925
	leaq	.LC29(%rip), %rdi
	call	stbi__err
	jmp	.L916
.L925:
	movq	-56(%rbp), %rax
	movl	$0, 18512(%rax)
	movl	$0, -36(%rbp)
	jmp	.L926
.L933:
	movq	-8(%rbp), %rax
	movq	%rax, %rdi
	call	stbi__get8
	movzbl	%al, %ecx
	movq	-56(%rbp), %rsi
	movl	-36(%rbp), %eax
	movslq	%eax, %rdx
	movq	%rdx, %rax
	addq	%rax, %rax
	addq	%rdx, %rax
	salq	$5, %rax
	addq	%rsi, %rax
	addq	$18080, %rax
	movl	%ecx, (%rax)
	movq	-8(%rbp), %rax
	movl	8(%rax), %eax
	cmpl	$3, %eax
	jne	.L927
	movq	-56(%rbp), %rcx
	movl	-36(%rbp), %eax
	movslq	%eax, %rdx
	movq	%rdx, %rax
	addq	%rax, %rax
	addq	%rdx, %rax
	salq	$5, %rax
	addq	%rcx, %rax
	addq	$18080, %rax
	movl	(%rax), %edx
	movl	-36(%rbp), %eax
	cltq
	leaq	rgb.7733(%rip), %rcx
	movzbl	(%rax,%rcx), %eax
	movzbl	%al, %eax
	cmpl	%eax, %edx
	jne	.L927
	movq	-56(%rbp), %rax
	movl	18512(%rax), %eax
	leal	1(%rax), %edx
	movq	-56(%rbp), %rax
	movl	%edx, 18512(%rax)
.L927:
	movq	-8(%rbp), %rax
	movq	%rax, %rdi
	call	stbi__get8
	movzbl	%al, %eax
	movl	%eax, -12(%rbp)
	movl	-12(%rbp), %eax
	sarl	$4, %eax
	movl	%eax, %ecx
	movq	-56(%rbp), %rsi
	movl	-36(%rbp), %eax
	movslq	%eax, %rdx
	movq	%rdx, %rax
	addq	%rax, %rax
	addq	%rdx, %rax
	salq	$5, %rax
	addq	%rsi, %rax
	addq	$18084, %rax
	movl	%ecx, (%rax)
	movq	-56(%rbp), %rcx
	movl	-36(%rbp), %eax
	movslq	%eax, %rdx
	movq	%rdx, %rax
	addq	%rax, %rax
	addq	%rdx, %rax
	salq	$5, %rax
	addq	%rcx, %rax
	addq	$18084, %rax
	movl	(%rax), %eax
	testl	%eax, %eax
	je	.L928
	movq	-56(%rbp), %rcx
	movl	-36(%rbp), %eax
	movslq	%eax, %rdx
	movq	%rdx, %rax
	addq	%rax, %rax
	addq	%rdx, %rax
	salq	$5, %rax
	addq	%rcx, %rax
	addq	$18084, %rax
	movl	(%rax), %eax
	cmpl	$4, %eax
	jle	.L929
.L928:
	leaq	.LC35(%rip), %rdi
	call	stbi__err
	jmp	.L916
.L929:
	movl	-12(%rbp), %eax
	andl	$15, %eax
	movl	%eax, %ecx
	movq	-56(%rbp), %rsi
	movl	-36(%rbp), %eax
	movslq	%eax, %rdx
	movq	%rdx, %rax
	addq	%rax, %rax
	addq	%rdx, %rax
	salq	$5, %rax
	addq	%rsi, %rax
	addq	$18088, %rax
	movl	%ecx, (%rax)
	movq	-56(%rbp), %rcx
	movl	-36(%rbp), %eax
	movslq	%eax, %rdx
	movq	%rdx, %rax
	addq	%rax, %rax
	addq	%rdx, %rax
	salq	$5, %rax
	addq	%rcx, %rax
	addq	$18088, %rax
	movl	(%rax), %eax
	testl	%eax, %eax
	je	.L930
	movq	-56(%rbp), %rcx
	movl	-36(%rbp), %eax
	movslq	%eax, %rdx
	movq	%rdx, %rax
	addq	%rax, %rax
	addq	%rdx, %rax
	salq	$5, %rax
	addq	%rcx, %rax
	addq	$18088, %rax
	movl	(%rax), %eax
	cmpl	$4, %eax
	jle	.L931
.L930:
	leaq	.LC36(%rip), %rdi
	call	stbi__err
	jmp	.L916
.L931:
	movq	-8(%rbp), %rax
	movq	%rax, %rdi
	call	stbi__get8
	movzbl	%al, %ecx
	movq	-56(%rbp), %rsi
	movl	-36(%rbp), %eax
	movslq	%eax, %rdx
	movq	%rdx, %rax
	addq	%rax, %rax
	addq	%rdx, %rax
	salq	$5, %rax
	addq	%rsi, %rax
	addq	$18092, %rax
	movl	%ecx, (%rax)
	movq	-56(%rbp), %rcx
	movl	-36(%rbp), %eax
	movslq	%eax, %rdx
	movq	%rdx, %rax
	addq	%rax, %rax
	addq	%rdx, %rax
	salq	$5, %rax
	addq	%rcx, %rax
	addq	$18092, %rax
	movl	(%rax), %eax
	cmpl	$3, %eax
	jle	.L932
	leaq	.LC37(%rip), %rdi
	call	stbi__err
	jmp	.L916
.L932:
	addl	$1, -36(%rbp)
.L926:
	movq	-8(%rbp), %rax
	movl	8(%rax), %eax
	cmpl	%eax, -36(%rbp)
	jl	.L933
	cmpl	$0, -60(%rbp)
	je	.L934
	movl	$1, %eax
	jmp	.L916
.L934:
	movq	-8(%rbp), %rax
	movl	8(%rax), %eax
	movq	-8(%rbp), %rdx
	movl	4(%rdx), %edx
	movl	%edx, %esi
	movq	-8(%rbp), %rdx
	movl	(%rdx), %edx
	movl	%edx, %edi
	movl	$0, %ecx
	movl	%eax, %edx
	call	stbi__mad3sizes_valid
	testl	%eax, %eax
	jne	.L935
	leaq	.LC33(%rip), %rdi
	call	stbi__err
	jmp	.L916
.L935:
	movl	$0, -36(%rbp)
	jmp	.L936
.L939:
	movq	-56(%rbp), %rcx
	movl	-36(%rbp), %eax
	movslq	%eax, %rdx
	movq	%rdx, %rax
	addq	%rax, %rax
	addq	%rdx, %rax
	salq	$5, %rax
	addq	%rcx, %rax
	addq	$18084, %rax
	movl	(%rax), %eax
	cmpl	%eax, -32(%rbp)
	jge	.L937
	movq	-56(%rbp), %rcx
	movl	-36(%rbp), %eax
	movslq	%eax, %rdx
	movq	%rdx, %rax
	addq	%rax, %rax
	addq	%rdx, %rax
	salq	$5, %rax
	addq	%rcx, %rax
	addq	$18084, %rax
	movl	(%rax), %eax
	movl	%eax, -32(%rbp)
.L937:
	movq	-56(%rbp), %rcx
	movl	-36(%rbp), %eax
	movslq	%eax, %rdx
	movq	%rdx, %rax
	addq	%rax, %rax
	addq	%rdx, %rax
	salq	$5, %rax
	addq	%rcx, %rax
	addq	$18088, %rax
	movl	(%rax), %eax
	cmpl	%eax, -28(%rbp)
	jge	.L938
	movq	-56(%rbp), %rcx
	movl	-36(%rbp), %eax
	movslq	%eax, %rdx
	movq	%rdx, %rax
	addq	%rax, %rax
	addq	%rdx, %rax
	salq	$5, %rax
	addq	%rcx, %rax
	addq	$18088, %rax
	movl	(%rax), %eax
	movl	%eax, -28(%rbp)
.L938:
	addl	$1, -36(%rbp)
.L936:
	movq	-8(%rbp), %rax
	movl	8(%rax), %eax
	cmpl	%eax, -36(%rbp)
	jl	.L939
	movl	$0, -36(%rbp)
	jmp	.L940
.L943:
	movq	-56(%rbp), %rcx
	movl	-36(%rbp), %eax
	movslq	%eax, %rdx
	movq	%rdx, %rax
	addq	%rax, %rax
	addq	%rdx, %rax
	salq	$5, %rax
	addq	%rcx, %rax
	addq	$18084, %rax
	movl	(%rax), %ecx
	movl	-32(%rbp), %eax
	cltd
	idivl	%ecx
	movl	%edx, %eax
	testl	%eax, %eax
	je	.L941
	leaq	.LC35(%rip), %rdi
	call	stbi__err
	jmp	.L916
.L941:
	movq	-56(%rbp), %rcx
	movl	-36(%rbp), %eax
	movslq	%eax, %rdx
	movq	%rdx, %rax
	addq	%rax, %rax
	addq	%rdx, %rax
	salq	$5, %rax
	addq	%rcx, %rax
	addq	$18088, %rax
	movl	(%rax), %ecx
	movl	-28(%rbp), %eax
	cltd
	idivl	%ecx
	movl	%edx, %eax
	testl	%eax, %eax
	je	.L942
	leaq	.LC36(%rip), %rdi
	call	stbi__err
	jmp	.L916
.L942:
	addl	$1, -36(%rbp)
.L940:
	movq	-8(%rbp), %rax
	movl	8(%rax), %eax
	cmpl	%eax, -36(%rbp)
	jl	.L943
	movq	-56(%rbp), %rax
	movl	-32(%rbp), %edx
	movl	%edx, 18056(%rax)
	movq	-56(%rbp), %rax
	movl	-28(%rbp), %edx
	movl	%edx, 18060(%rax)
	movl	-32(%rbp), %eax
	leal	0(,%rax,8), %edx
	movq	-56(%rbp), %rax
	movl	%edx, 18072(%rax)
	movl	-28(%rbp), %eax
	leal	0(,%rax,8), %edx
	movq	-56(%rbp), %rax
	movl	%edx, 18076(%rax)
	movq	-8(%rbp), %rax
	movl	(%rax), %edx
	movq	-56(%rbp), %rax
	movl	18072(%rax), %eax
	addl	%edx, %eax
	leal	-1(%rax), %edx
	movq	-56(%rbp), %rax
	movl	18072(%rax), %eax
	movl	%eax, %ecx
	movl	%edx, %eax
	movl	$0, %edx
	divl	%ecx
	movl	%eax, %edx
	movq	-56(%rbp), %rax
	movl	%edx, 18064(%rax)
	movq	-8(%rbp), %rax
	movl	4(%rax), %edx
	movq	-56(%rbp), %rax
	movl	18076(%rax), %eax
	addl	%edx, %eax
	leal	-1(%rax), %edx
	movq	-56(%rbp), %rax
	movl	18076(%rax), %eax
	movl	%eax, %ecx
	movl	%edx, %eax
	movl	$0, %edx
	divl	%ecx
	movl	%eax, %edx
	movq	-56(%rbp), %rax
	movl	%edx, 18068(%rax)
	movl	$0, -36(%rbp)
	jmp	.L944
.L948:
	movq	-8(%rbp), %rax
	movl	(%rax), %ecx
	movq	-56(%rbp), %rsi
	movl	-36(%rbp), %eax
	movslq	%eax, %rdx
	movq	%rdx, %rax
	addq	%rax, %rax
	addq	%rdx, %rax
	salq	$5, %rax
	addq	%rsi, %rax
	addq	$18084, %rax
	movl	(%rax), %eax
	imull	%eax, %ecx
	movl	%ecx, %edx
	movl	-32(%rbp), %eax
	addl	%edx, %eax
	subl	$1, %eax
	movl	-32(%rbp), %edi
	movl	$0, %edx
	divl	%edi
	movl	%eax, %esi
	movq	-56(%rbp), %rcx
	movl	-36(%rbp), %eax
	movslq	%eax, %rdx
	movq	%rdx, %rax
	addq	%rax, %rax
	addq	%rdx, %rax
	salq	$5, %rax
	addq	%rcx, %rax
	addq	$18108, %rax
	movl	%esi, (%rax)
	movq	-8(%rbp), %rax
	movl	4(%rax), %ecx
	movq	-56(%rbp), %rsi
	movl	-36(%rbp), %eax
	movslq	%eax, %rdx
	movq	%rdx, %rax
	addq	%rax, %rax
	addq	%rdx, %rax
	salq	$5, %rax
	addq	%rsi, %rax
	addq	$18088, %rax
	movl	(%rax), %eax
	imull	%eax, %ecx
	movl	%ecx, %edx
	movl	-28(%rbp), %eax
	addl	%edx, %eax
	subl	$1, %eax
	movl	-28(%rbp), %edi
	movl	$0, %edx
	divl	%edi
	movl	%eax, %esi
	movq	-56(%rbp), %rcx
	movl	-36(%rbp), %eax
	movslq	%eax, %rdx
	movq	%rdx, %rax
	addq	%rax, %rax
	addq	%rdx, %rax
	salq	$5, %rax
	addq	%rcx, %rax
	addq	$18112, %rax
	movl	%esi, (%rax)
	movq	-56(%rbp), %rax
	movl	18064(%rax), %ecx
	movq	-56(%rbp), %rsi
	movl	-36(%rbp), %eax
	movslq	%eax, %rdx
	movq	%rdx, %rax
	addq	%rax, %rax
	addq	%rdx, %rax
	salq	$5, %rax
	addq	%rsi, %rax
	addq	$18084, %rax
	movl	(%rax), %eax
	imull	%ecx, %eax
	leal	0(,%rax,8), %ecx
	movq	-56(%rbp), %rsi
	movl	-36(%rbp), %eax
	movslq	%eax, %rdx
	movq	%rdx, %rax
	addq	%rax, %rax
	addq	%rdx, %rax
	salq	$5, %rax
	addq	%rsi, %rax
	addq	$18116, %rax
	movl	%ecx, (%rax)
	movq	-56(%rbp), %rax
	movl	18068(%rax), %ecx
	movq	-56(%rbp), %rsi
	movl	-36(%rbp), %eax
	movslq	%eax, %rdx
	movq	%rdx, %rax
	addq	%rax, %rax
	addq	%rdx, %rax
	salq	$5, %rax
	addq	%rsi, %rax
	addq	$18088, %rax
	movl	(%rax), %eax
	imull	%ecx, %eax
	leal	0(,%rax,8), %ecx
	movq	-56(%rbp), %rsi
	movl	-36(%rbp), %eax
	movslq	%eax, %rdx
	movq	%rdx, %rax
	addq	%rax, %rax
	addq	%rdx, %rax
	salq	$5, %rax
	addq	%rsi, %rax
	addq	$18120, %rax
	movl	%ecx, (%rax)
	movq	-56(%rbp), %rcx
	movl	-36(%rbp), %eax
	movslq	%eax, %rdx
	movq	%rdx, %rax
	addq	%rax, %rax
	addq	%rdx, %rax
	salq	$5, %rax
	addq	%rcx, %rax
	addq	$18160, %rax
	movq	$0, (%rax)
	movq	-56(%rbp), %rcx
	movl	-36(%rbp), %eax
	movslq	%eax, %rdx
	movq	%rdx, %rax
	addq	%rax, %rax
	addq	%rdx, %rax
	salq	$5, %rax
	addq	%rcx, %rax
	addq	$18144, %rax
	movq	$0, (%rax)
	movq	-56(%rbp), %rcx
	movl	-36(%rbp), %eax
	movslq	%eax, %rdx
	movq	%rdx, %rax
	addq	%rax, %rax
	addq	%rdx, %rax
	salq	$5, %rax
	addq	%rcx, %rax
	addq	$18152, %rax
	movq	$0, (%rax)
	movq	-56(%rbp), %rcx
	movl	-36(%rbp), %eax
	movslq	%eax, %rdx
	movq	%rdx, %rax
	addq	%rax, %rax
	addq	%rdx, %rax
	salq	$5, %rax
	addq	%rcx, %rax
	addq	$18120, %rax
	movl	(%rax), %ecx
	movq	-56(%rbp), %rsi
	movl	-36(%rbp), %eax
	movslq	%eax, %rdx
	movq	%rdx, %rax
	addq	%rax, %rax
	addq	%rdx, %rax
	salq	$5, %rax
	addq	%rsi, %rax
	addq	$18116, %rax
	movl	(%rax), %eax
	movl	$15, %edx
	movl	%ecx, %esi
	movl	%eax, %edi
	call	stbi__malloc_mad2
	movq	%rax, %rcx
	movq	-56(%rbp), %rsi
	movl	-36(%rbp), %eax
	movslq	%eax, %rdx
	movq	%rdx, %rax
	addq	%rax, %rax
	addq	%rdx, %rax
	salq	$5, %rax
	addq	%rsi, %rax
	addq	$18136, %rax
	movq	%rcx, (%rax)
	movq	-56(%rbp), %rcx
	movl	-36(%rbp), %eax
	movslq	%eax, %rdx
	movq	%rdx, %rax
	addq	%rax, %rax
	addq	%rdx, %rax
	salq	$5, %rax
	addq	%rcx, %rax
	addq	$18136, %rax
	movq	(%rax), %rax
	testq	%rax, %rax
	jne	.L945
	leaq	.LC1(%rip), %rdi
	call	stbi__err
	movl	%eax, %edx
	movl	-36(%rbp), %eax
	leal	1(%rax), %ecx
	movq	-56(%rbp), %rax
	movl	%ecx, %esi
	movq	%rax, %rdi
	call	stbi__free_jpeg_components
	jmp	.L916
.L945:
	movq	-56(%rbp), %rcx
	movl	-36(%rbp), %eax
	movslq	%eax, %rdx
	movq	%rdx, %rax
	addq	%rax, %rax
	addq	%rdx, %rax
	salq	$5, %rax
	addq	%rcx, %rax
	addq	$18136, %rax
	movq	(%rax), %rax
	addq	$15, %rax
	andq	$-16, %rax
	movq	%rax, %rsi
	movq	-56(%rbp), %rcx
	movl	-36(%rbp), %eax
	movslq	%eax, %rdx
	movq	%rdx, %rax
	addq	%rax, %rax
	addq	%rdx, %rax
	salq	$5, %rax
	addq	%rcx, %rax
	addq	$18128, %rax
	movq	%rsi, (%rax)
	movq	-56(%rbp), %rax
	movl	18480(%rax), %eax
	testl	%eax, %eax
	je	.L946
	movq	-56(%rbp), %rcx
	movl	-36(%rbp), %eax
	movslq	%eax, %rdx
	movq	%rdx, %rax
	addq	%rax, %rax
	addq	%rdx, %rax
	salq	$5, %rax
	addq	%rcx, %rax
	addq	$18116, %rax
	movl	(%rax), %eax
	leal	7(%rax), %edx
	testl	%eax, %eax
	cmovs	%edx, %eax
	sarl	$3, %eax
	movl	%eax, %esi
	movq	-56(%rbp), %rcx
	movl	-36(%rbp), %eax
	movslq	%eax, %rdx
	movq	%rdx, %rax
	addq	%rax, %rax
	addq	%rdx, %rax
	salq	$5, %rax
	addq	%rcx, %rax
	addq	$18168, %rax
	movl	%esi, (%rax)
	movq	-56(%rbp), %rcx
	movl	-36(%rbp), %eax
	movslq	%eax, %rdx
	movq	%rdx, %rax
	addq	%rax, %rax
	addq	%rdx, %rax
	salq	$5, %rax
	addq	%rcx, %rax
	addq	$18120, %rax
	movl	(%rax), %eax
	leal	7(%rax), %edx
	testl	%eax, %eax
	cmovs	%edx, %eax
	sarl	$3, %eax
	movl	%eax, %esi
	movq	-56(%rbp), %rcx
	movl	-36(%rbp), %eax
	movslq	%eax, %rdx
	movq	%rdx, %rax
	addq	%rax, %rax
	addq	%rdx, %rax
	salq	$5, %rax
	addq	%rcx, %rax
	addq	$18172, %rax
	movl	%esi, (%rax)
	movq	-56(%rbp), %rcx
	movl	-36(%rbp), %eax
	movslq	%eax, %rdx
	movq	%rdx, %rax
	addq	%rax, %rax
	addq	%rdx, %rax
	salq	$5, %rax
	addq	%rcx, %rax
	addq	$18120, %rax
	movl	(%rax), %esi
	movq	-56(%rbp), %rcx
	movl	-36(%rbp), %eax
	movslq	%eax, %rdx
	movq	%rdx, %rax
	addq	%rax, %rax
	addq	%rdx, %rax
	salq	$5, %rax
	addq	%rcx, %rax
	addq	$18116, %rax
	movl	(%rax), %eax
	movl	$15, %ecx
	movl	$2, %edx
	movl	%eax, %edi
	call	stbi__malloc_mad3
	movq	%rax, %rcx
	movq	-56(%rbp), %rsi
	movl	-36(%rbp), %eax
	movslq	%eax, %rdx
	movq	%rdx, %rax
	addq	%rax, %rax
	addq	%rdx, %rax
	salq	$5, %rax
	addq	%rsi, %rax
	addq	$18144, %rax
	movq	%rcx, (%rax)
	movq	-56(%rbp), %rcx
	movl	-36(%rbp), %eax
	movslq	%eax, %rdx
	movq	%rdx, %rax
	addq	%rax, %rax
	addq	%rdx, %rax
	salq	$5, %rax
	addq	%rcx, %rax
	addq	$18144, %rax
	movq	(%rax), %rax
	testq	%rax, %rax
	jne	.L947
	leaq	.LC1(%rip), %rdi
	call	stbi__err
	movl	%eax, %edx
	movl	-36(%rbp), %eax
	leal	1(%rax), %ecx
	movq	-56(%rbp), %rax
	movl	%ecx, %esi
	movq	%rax, %rdi
	call	stbi__free_jpeg_components
	jmp	.L916
.L947:
	movq	-56(%rbp), %rcx
	movl	-36(%rbp), %eax
	movslq	%eax, %rdx
	movq	%rdx, %rax
	addq	%rax, %rax
	addq	%rdx, %rax
	salq	$5, %rax
	addq	%rcx, %rax
	addq	$18144, %rax
	movq	(%rax), %rax
	addq	$15, %rax
	andq	$-16, %rax
	movq	%rax, %rsi
	movq	-56(%rbp), %rcx
	movl	-36(%rbp), %eax
	movslq	%eax, %rdx
	movq	%rdx, %rax
	addq	%rax, %rax
	addq	%rdx, %rax
	salq	$5, %rax
	addq	%rcx, %rax
	addq	$18160, %rax
	movq	%rsi, (%rax)
.L946:
	addl	$1, -36(%rbp)
.L944:
	movq	-8(%rbp), %rax
	movl	8(%rax), %eax
	cmpl	%eax, -36(%rbp)
	jl	.L948
	movl	$1, %eax
.L916:
	leave
	.cfi_def_cfa 7, 8
	ret
	.cfi_endproc
.LFE594:
	.size	stbi__process_frame_header, .-stbi__process_frame_header
	.section	.rodata
.LC38:
	.string	"no SOI"
.LC39:
	.string	"no SOF"
	.text
	.type	stbi__decode_jpeg_header, @function
stbi__decode_jpeg_header:
.LFB595:
	.cfi_startproc
	endbr64
	pushq	%rbp
	.cfi_def_cfa_offset 16
	.cfi_offset 6, -16
	movq	%rsp, %rbp
	.cfi_def_cfa_register 6
	subq	$32, %rsp
	movq	%rdi, -24(%rbp)
	movl	%esi, -28(%rbp)
	movq	-24(%rbp), %rax
	movl	$0, 18504(%rax)
	movq	-24(%rbp), %rax
	movl	$-1, 18508(%rax)
	movq	-24(%rbp), %rax
	movb	$-1, 18472(%rax)
	movq	-24(%rbp), %rax
	movq	%rax, %rdi
	call	stbi__get_marker
	movzbl	%al, %eax
	movl	%eax, -4(%rbp)
	cmpl	$216, -4(%rbp)
	je	.L950
	leaq	.LC38(%rip), %rdi
	call	stbi__err
	jmp	.L951
.L950:
	cmpl	$1, -28(%rbp)
	jne	.L952
	movl	$1, %eax
	jmp	.L951
.L952:
	movq	-24(%rbp), %rax
	movq	%rax, %rdi
	call	stbi__get_marker
	movzbl	%al, %eax
	movl	%eax, -4(%rbp)
	jmp	.L953
.L959:
	movl	-4(%rbp), %edx
	movq	-24(%rbp), %rax
	movl	%edx, %esi
	movq	%rax, %rdi
	call	stbi__process_marker
	testl	%eax, %eax
	jne	.L954
	movl	$0, %eax
	jmp	.L951
.L954:
	movq	-24(%rbp), %rax
	movq	%rax, %rdi
	call	stbi__get_marker
	movzbl	%al, %eax
	movl	%eax, -4(%rbp)
	jmp	.L955
.L957:
	movq	-24(%rbp), %rax
	movq	(%rax), %rax
	movq	%rax, %rdi
	call	stbi__at_eof
	testl	%eax, %eax
	je	.L956
	leaq	.LC39(%rip), %rdi
	call	stbi__err
	jmp	.L951
.L956:
	movq	-24(%rbp), %rax
	movq	%rax, %rdi
	call	stbi__get_marker
	movzbl	%al, %eax
	movl	%eax, -4(%rbp)
.L955:
	cmpl	$255, -4(%rbp)
	je	.L957
.L953:
	cmpl	$192, -4(%rbp)
	je	.L958
	cmpl	$193, -4(%rbp)
	je	.L958
	cmpl	$194, -4(%rbp)
	jne	.L959
.L958:
	cmpl	$194, -4(%rbp)
	sete	%al
	movzbl	%al, %edx
	movq	-24(%rbp), %rax
	movl	%edx, 18480(%rax)
	movl	-28(%rbp), %edx
	movq	-24(%rbp), %rax
	movl	%edx, %esi
	movq	%rax, %rdi
	call	stbi__process_frame_header
	testl	%eax, %eax
	jne	.L960
	movl	$0, %eax
	jmp	.L951
.L960:
	movl	$1, %eax
.L951:
	leave
	.cfi_def_cfa 7, 8
	ret
	.cfi_endproc
.LFE595:
	.size	stbi__decode_jpeg_header, .-stbi__decode_jpeg_header
	.section	.rodata
.LC40:
	.string	"bad DNL len"
.LC41:
	.string	"bad DNL height"
	.text
	.type	stbi__decode_jpeg_image, @function
stbi__decode_jpeg_image:
.LFB596:
	.cfi_startproc
	endbr64
	pushq	%rbp
	.cfi_def_cfa_offset 16
	.cfi_offset 6, -16
	movq	%rsp, %rbp
	.cfi_def_cfa_register 6
	subq	$32, %rsp
	movq	%rdi, -24(%rbp)
	movl	$0, -16(%rbp)
	jmp	.L962
.L963:
	movq	-24(%rbp), %rcx
	movl	-16(%rbp), %eax
	movslq	%eax, %rdx
	movq	%rdx, %rax
	addq	%rax, %rax
	addq	%rdx, %rax
	salq	$5, %rax
	addq	%rcx, %rax
	addq	$18136, %rax
	movq	$0, (%rax)
	movq	-24(%rbp), %rcx
	movl	-16(%rbp), %eax
	movslq	%eax, %rdx
	movq	%rdx, %rax
	addq	%rax, %rax
	addq	%rdx, %rax
	salq	$5, %rax
	addq	%rcx, %rax
	addq	$18144, %rax
	movq	$0, (%rax)
	addl	$1, -16(%rbp)
.L962:
	cmpl	$3, -16(%rbp)
	jle	.L963
	movq	-24(%rbp), %rax
	movl	$0, 18536(%rax)
	movq	-24(%rbp), %rax
	movl	$0, %esi
	movq	%rax, %rdi
	call	stbi__decode_jpeg_header
	testl	%eax, %eax
	jne	.L964
	movl	$0, %eax
	jmp	.L965
.L964:
	movq	-24(%rbp), %rax
	movq	%rax, %rdi
	call	stbi__get_marker
	movzbl	%al, %eax
	movl	%eax, -16(%rbp)
	jmp	.L966
.L976:
	cmpl	$218, -16(%rbp)
	jne	.L967
	movq	-24(%rbp), %rax
	movq	%rax, %rdi
	call	stbi__process_scan_header
	testl	%eax, %eax
	jne	.L968
	movl	$0, %eax
	jmp	.L965
.L968:
	movq	-24(%rbp), %rax
	movq	%rax, %rdi
	call	stbi__parse_entropy_coded_data
	testl	%eax, %eax
	jne	.L969
	movl	$0, %eax
	jmp	.L965
.L969:
	movq	-24(%rbp), %rax
	movzbl	18472(%rax), %eax
	cmpb	$-1, %al
	jne	.L973
	jmp	.L971
.L972:
	movq	-24(%rbp), %rax
	movq	(%rax), %rax
	movq	%rax, %rdi
	call	stbi__get8
	movzbl	%al, %eax
	movl	%eax, -4(%rbp)
	cmpl	$255, -4(%rbp)
	jne	.L971
	movq	-24(%rbp), %rax
	movq	(%rax), %rax
	movq	%rax, %rdi
	call	stbi__get8
	movq	-24(%rbp), %rdx
	movb	%al, 18472(%rdx)
	jmp	.L973
.L971:
	movq	-24(%rbp), %rax
	movq	(%rax), %rax
	movq	%rax, %rdi
	call	stbi__at_eof
	testl	%eax, %eax
	je	.L972
	jmp	.L973
.L967:
	cmpl	$220, -16(%rbp)
	jne	.L974
	movq	-24(%rbp), %rax
	movq	(%rax), %rax
	movq	%rax, %rdi
	call	stbi__get16be
	movl	%eax, -12(%rbp)
	movq	-24(%rbp), %rax
	movq	(%rax), %rax
	movq	%rax, %rdi
	call	stbi__get16be
	movl	%eax, -8(%rbp)
	cmpl	$4, -12(%rbp)
	je	.L975
	leaq	.LC40(%rip), %rdi
	call	stbi__err
	jmp	.L965
.L975:
	movq	-24(%rbp), %rax
	movq	(%rax), %rax
	movl	4(%rax), %eax
	cmpl	%eax, -8(%rbp)
	je	.L973
	leaq	.LC41(%rip), %rdi
	call	stbi__err
	jmp	.L965
.L974:
	movl	-16(%rbp), %edx
	movq	-24(%rbp), %rax
	movl	%edx, %esi
	movq	%rax, %rdi
	call	stbi__process_marker
	testl	%eax, %eax
	jne	.L973
	movl	$0, %eax
	jmp	.L965
.L973:
	movq	-24(%rbp), %rax
	movq	%rax, %rdi
	call	stbi__get_marker
	movzbl	%al, %eax
	movl	%eax, -16(%rbp)
.L966:
	cmpl	$217, -16(%rbp)
	jne	.L976
	movq	-24(%rbp), %rax
	movl	18480(%rax), %eax
	testl	%eax, %eax
	je	.L977
	movq	-24(%rbp), %rax
	movq	%rax, %rdi
	call	stbi__jpeg_finish
.L977:
	movl	$1, %eax
.L965:
	leave
	.cfi_def_cfa 7, 8
	ret
	.cfi_endproc
.LFE596:
	.size	stbi__decode_jpeg_image, .-stbi__decode_jpeg_image
	.type	resample_row_1, @function
resample_row_1:
.LFB597:
	.cfi_startproc
	endbr64
	pushq	%rbp
	.cfi_def_cfa_offset 16
	.cfi_offset 6, -16
	movq	%rsp, %rbp
	.cfi_def_cfa_register 6
	movq	%rdi, -8(%rbp)
	movq	%rsi, -16(%rbp)
	movq	%rdx, -24(%rbp)
	movl	%ecx, -28(%rbp)
	movl	%r8d, -32(%rbp)
	movq	-16(%rbp), %rax
	popq	%rbp
	.cfi_def_cfa 7, 8
	ret
	.cfi_endproc
.LFE597:
	.size	resample_row_1, .-resample_row_1
	.type	stbi__resample_row_v_2, @function
stbi__resample_row_v_2:
.LFB598:
	.cfi_startproc
	endbr64
	pushq	%rbp
	.cfi_def_cfa_offset 16
	.cfi_offset 6, -16
	movq	%rsp, %rbp
	.cfi_def_cfa_register 6
	movq	%rdi, -24(%rbp)
	movq	%rsi, -32(%rbp)
	movq	%rdx, -40(%rbp)
	movl	%ecx, -44(%rbp)
	movl	%r8d, -48(%rbp)
	movl	$0, -4(%rbp)
	jmp	.L981
.L982:
	movl	-4(%rbp), %eax
	movslq	%eax, %rdx
	movq	-32(%rbp), %rax
	addq	%rdx, %rax
	movzbl	(%rax), %eax
	movzbl	%al, %edx
	movl	%edx, %eax
	addl	%eax, %eax
	leal	(%rax,%rdx), %ecx
	movl	-4(%rbp), %eax
	movslq	%eax, %rdx
	movq	-40(%rbp), %rax
	addq	%rdx, %rax
	movzbl	(%rax), %eax
	movzbl	%al, %eax
	addl	%ecx, %eax
	addl	$2, %eax
	sarl	$2, %eax
	movl	%eax, %ecx
	movl	-4(%rbp), %eax
	movslq	%eax, %rdx
	movq	-24(%rbp), %rax
	addq	%rdx, %rax
	movl	%ecx, %edx
	movb	%dl, (%rax)
	addl	$1, -4(%rbp)
.L981:
	movl	-4(%rbp), %eax
	cmpl	-44(%rbp), %eax
	jl	.L982
	movq	-24(%rbp), %rax
	popq	%rbp
	.cfi_def_cfa 7, 8
	ret
	.cfi_endproc
.LFE598:
	.size	stbi__resample_row_v_2, .-stbi__resample_row_v_2
	.type	stbi__resample_row_h_2, @function
stbi__resample_row_h_2:
.LFB599:
	.cfi_startproc
	endbr64
	pushq	%rbp
	.cfi_def_cfa_offset 16
	.cfi_offset 6, -16
	movq	%rsp, %rbp
	.cfi_def_cfa_register 6
	movq	%rdi, -24(%rbp)
	movq	%rsi, -32(%rbp)
	movq	%rdx, -40(%rbp)
	movl	%ecx, -44(%rbp)
	movl	%r8d, -48(%rbp)
	movq	-32(%rbp), %rax
	movq	%rax, -8(%rbp)
	cmpl	$1, -44(%rbp)
	jne	.L985
	movq	-24(%rbp), %rax
	addq	$1, %rax
	movq	-8(%rbp), %rdx
	movzbl	(%rdx), %edx
	movb	%dl, (%rax)
	movzbl	(%rax), %edx
	movq	-24(%rbp), %rax
	movb	%dl, (%rax)
	movq	-24(%rbp), %rax
	jmp	.L986
.L985:
	movq	-8(%rbp), %rax
	movzbl	(%rax), %edx
	movq	-24(%rbp), %rax
	movb	%dl, (%rax)
	movq	-8(%rbp), %rax
	movzbl	(%rax), %eax
	movzbl	%al, %edx
	movl	%edx, %eax
	addl	%eax, %eax
	addl	%eax, %edx
	movq	-8(%rbp), %rax
	addq	$1, %rax
	movzbl	(%rax), %eax
	movzbl	%al, %eax
	addl	%edx, %eax
	addl	$2, %eax
	sarl	$2, %eax
	movl	%eax, %edx
	movq	-24(%rbp), %rax
	addq	$1, %rax
	movb	%dl, (%rax)
	movl	$1, -16(%rbp)
	jmp	.L987
.L988:
	movl	-16(%rbp), %eax
	movslq	%eax, %rdx
	movq	-8(%rbp), %rax
	addq	%rdx, %rax
	movzbl	(%rax), %eax
	movzbl	%al, %edx
	movl	%edx, %eax
	addl	%eax, %eax
	addl	%edx, %eax
	addl	$2, %eax
	movl	%eax, -12(%rbp)
	movl	-16(%rbp), %eax
	cltq
	leaq	-1(%rax), %rdx
	movq	-8(%rbp), %rax
	addq	%rdx, %rax
	movzbl	(%rax), %eax
	movzbl	%al, %edx
	movl	-12(%rbp), %eax
	addl	%edx, %eax
	sarl	$2, %eax
	movl	%eax, %ecx
	movl	-16(%rbp), %eax
	addl	%eax, %eax
	movslq	%eax, %rdx
	movq	-24(%rbp), %rax
	addq	%rdx, %rax
	movl	%ecx, %edx
	movb	%dl, (%rax)
	movl	-16(%rbp), %eax
	cltq
	leaq	1(%rax), %rdx
	movq	-8(%rbp), %rax
	addq	%rdx, %rax
	movzbl	(%rax), %eax
	movzbl	%al, %edx
	movl	-12(%rbp), %eax
	addl	%edx, %eax
	sarl	$2, %eax
	movl	%eax, %ecx
	movl	-16(%rbp), %eax
	addl	%eax, %eax
	cltq
	leaq	1(%rax), %rdx
	movq	-24(%rbp), %rax
	addq	%rdx, %rax
	movl	%ecx, %edx
	movb	%dl, (%rax)
	addl	$1, -16(%rbp)
.L987:
	movl	-44(%rbp), %eax
	subl	$1, %eax
	cmpl	%eax, -16(%rbp)
	jl	.L988
	movl	-44(%rbp), %eax
	cltq
	leaq	-2(%rax), %rdx
	movq	-8(%rbp), %rax
	addq	%rdx, %rax
	movzbl	(%rax), %eax
	movzbl	%al, %edx
	movl	%edx, %eax
	addl	%eax, %eax
	addl	%eax, %edx
	movl	-44(%rbp), %eax
	cltq
	leaq	-1(%rax), %rcx
	movq	-8(%rbp), %rax
	addq	%rcx, %rax
	movzbl	(%rax), %eax
	movzbl	%al, %eax
	addl	%edx, %eax
	addl	$2, %eax
	sarl	$2, %eax
	movl	%eax, %ecx
	movl	-16(%rbp), %eax
	addl	%eax, %eax
	movslq	%eax, %rdx
	movq	-24(%rbp), %rax
	addq	%rdx, %rax
	movl	%ecx, %edx
	movb	%dl, (%rax)
	movl	-44(%rbp), %eax
	cltq
	leaq	-1(%rax), %rdx
	movq	-8(%rbp), %rax
	addq	%rdx, %rax
	movl	-16(%rbp), %edx
	addl	%edx, %edx
	movslq	%edx, %rdx
	leaq	1(%rdx), %rcx
	movq	-24(%rbp), %rdx
	addq	%rcx, %rdx
	movzbl	(%rax), %eax
	movb	%al, (%rdx)
	movq	-24(%rbp), %rax
.L986:
	popq	%rbp
	.cfi_def_cfa 7, 8
	ret
	.cfi_endproc
.LFE599:
	.size	stbi__resample_row_h_2, .-stbi__resample_row_h_2
	.type	stbi__resample_row_hv_2, @function
stbi__resample_row_hv_2:
.LFB600:
	.cfi_startproc
	endbr64
	pushq	%rbp
	.cfi_def_cfa_offset 16
	.cfi_offset 6, -16
	movq	%rsp, %rbp
	.cfi_def_cfa_register 6
	movq	%rdi, -24(%rbp)
	movq	%rsi, -32(%rbp)
	movq	%rdx, -40(%rbp)
	movl	%ecx, -44(%rbp)
	movl	%r8d, -48(%rbp)
	cmpl	$1, -44(%rbp)
	jne	.L990
	movq	-32(%rbp), %rax
	movzbl	(%rax), %eax
	movzbl	%al, %edx
	movl	%edx, %eax
	addl	%eax, %eax
	addl	%eax, %edx
	movq	-40(%rbp), %rax
	movzbl	(%rax), %eax
	movzbl	%al, %eax
	addl	%edx, %eax
	addl	$2, %eax
	sarl	$2, %eax
	movl	%eax, %edx
	movq	-24(%rbp), %rax
	addq	$1, %rax
	movb	%dl, (%rax)
	movzbl	(%rax), %edx
	movq	-24(%rbp), %rax
	movb	%dl, (%rax)
	movq	-24(%rbp), %rax
	jmp	.L991
.L990:
	movq	-32(%rbp), %rax
	movzbl	(%rax), %eax
	movzbl	%al, %edx
	movl	%edx, %eax
	addl	%eax, %eax
	addl	%eax, %edx
	movq	-40(%rbp), %rax
	movzbl	(%rax), %eax
	movzbl	%al, %eax
	addl	%edx, %eax
	movl	%eax, -8(%rbp)
	movl	-8(%rbp), %eax
	addl	$2, %eax
	sarl	$2, %eax
	movl	%eax, %edx
	movq	-24(%rbp), %rax
	movb	%dl, (%rax)
	movl	$1, -12(%rbp)
	jmp	.L992
.L993:
	movl	-8(%rbp), %eax
	movl	%eax, -4(%rbp)
	movl	-12(%rbp), %eax
	movslq	%eax, %rdx
	movq	-32(%rbp), %rax
	addq	%rdx, %rax
	movzbl	(%rax), %eax
	movzbl	%al, %edx
	movl	%edx, %eax
	addl	%eax, %eax
	leal	(%rax,%rdx), %ecx
	movl	-12(%rbp), %eax
	movslq	%eax, %rdx
	movq	-40(%rbp), %rax
	addq	%rdx, %rax
	movzbl	(%rax), %eax
	movzbl	%al, %eax
	addl	%ecx, %eax
	movl	%eax, -8(%rbp)
	movl	-4(%rbp), %edx
	movl	%edx, %eax
	addl	%eax, %eax
	addl	%eax, %edx
	movl	-8(%rbp), %eax
	addl	%edx, %eax
	addl	$8, %eax
	sarl	$4, %eax
	movl	%eax, %ecx
	movl	-12(%rbp), %eax
	addl	%eax, %eax
	cltq
	leaq	-1(%rax), %rdx
	movq	-24(%rbp), %rax
	addq	%rdx, %rax
	movl	%ecx, %edx
	movb	%dl, (%rax)
	movl	-8(%rbp), %edx
	movl	%edx, %eax
	addl	%eax, %eax
	addl	%eax, %edx
	movl	-4(%rbp), %eax
	addl	%edx, %eax
	addl	$8, %eax
	sarl	$4, %eax
	movl	%eax, %ecx
	movl	-12(%rbp), %eax
	addl	%eax, %eax
	movslq	%eax, %rdx
	movq	-24(%rbp), %rax
	addq	%rdx, %rax
	movl	%ecx, %edx
	movb	%dl, (%rax)
	addl	$1, -12(%rbp)
.L992:
	movl	-12(%rbp), %eax
	cmpl	-44(%rbp), %eax
	jl	.L993
	movl	-8(%rbp), %eax
	addl	$2, %eax
	sarl	$2, %eax
	movl	%eax, %ecx
	movl	-44(%rbp), %eax
	addl	%eax, %eax
	cltq
	leaq	-1(%rax), %rdx
	movq	-24(%rbp), %rax
	addq	%rdx, %rax
	movl	%ecx, %edx
	movb	%dl, (%rax)
	movq	-24(%rbp), %rax
.L991:
	popq	%rbp
	.cfi_def_cfa 7, 8
	ret
	.cfi_endproc
.LFE600:
	.size	stbi__resample_row_hv_2, .-stbi__resample_row_hv_2
	.type	stbi__resample_row_hv_2_simd, @function
stbi__resample_row_hv_2_simd:
.LFB601:
	.cfi_startproc
	endbr64
